                             //
                             // segment_2.1 
                             // Loadable segment  [0x0 - 0xaaf]
                             // ram:00100000-ram:00100317
                             //
             assume DF = 0x0  (Default)
        00100000 7f 45 4c        Elf64_Ehdr
                 46 02 01 
                 01 00 00 
           00100000 7f              db        7Fh                     e_ident_magi
           00100001 45 4c 46        ds        "ELF"                   e_ident_magi
           00100004 02              db        2h                      e_ident_class
           00100005 01              db        1h                      e_ident_data
           00100006 01              db        1h                      e_ident_vers
           00100007 00              db        0h                      e_ident_osabi
           00100008 00              db        0h                      e_ident_abiv
           00100009 00 00 00 00 00  db[7]                             e_ident_pad
                    00 00
           00100010 03 00           dw        3h                      e_type
           00100012 3e 00           dw        3Eh                     e_machine
           00100014 01 00 00 00     ddw       1h                      e_version
           00100018 e0 11 00 00 00  dq        _start                  e_entry
                    00 00 00
           00100020 40 00 00 00 00  dq        Elf64_Phdr_ARRAY_00100  e_phoff
                    00 00 00
           00100028 e8 4b 00 00 00  dq        Elf64_Shdr_ARRAY__elfS  e_shoff
                    00 00 00
           00100030 00 00 00 00     ddw       0h                      e_flags
           00100034 40 00           dw        40h                     e_ehsize
           00100036 38 00           dw        38h                     e_phentsize
           00100038 0d 00           dw        Dh                      e_phnum
           0010003a 40 00           dw        40h                     e_shentsize
           0010003c 1f 00           dw        1Fh                     e_shnum
           0010003e 1e 00           dw        1Eh                     e_shstrndx
                             Elf64_Phdr_ARRAY_00100040                       XREF[2]:     00100020(*), 00100050(*)  
        00100040 06 00 00        Elf64_Ph                                                    PT_PHDR - Program header table
                 00 04 00 
                 00 00 40 
                             //
                             // .interp 
                             // SHT_PROGBITS  [0x318 - 0x334]
                             // ram:00100318-ram:00100334
                             //
                             s_./glibc/ld-linux-x86-64.so.2_00100318         XREF[2]:     00100088(*), 
                                                                                          _elfSectionHeaders::00000050(*)  
        00100318 2e 2f 67        ds         "./glibc/ld-linux-x86-64.so.2"                   Initial Elf program interpreter
                 6c 69 62 
                 63 2f 6c 
                             //
                             // .note.gnu.property 
                             // SHT_NOTE  [0x338 - 0x367]
                             // ram:00100338-ram:00100367
                             //
                             NoteGnuProperty_4_00100338                      XREF[3]:     001001d8(*), 00100248(*), 
                                                                                          _elfSectionHeaders::00000090(*)  
        00100338 04 00 00        NoteGnuP                                                    Length of name field
                 00 20 00 
                 00 00 05 
        00100348 02 00 00        NoteGnuP                                                    processor opt 0xc0000002=03 00 0
                 c0 04 00 
                 00 00 03 
        00100354 00 00 00        NoteGnuP                                                    processor opt 0xc0008002=01 00 0
                 00 02 80 
                 00 c0 04 
        00100360 01              ??         01h
        00100361 00              ??         00h
        00100362 00              ??         00h
        00100363 00              ??         00h
        00100364 00              ??         00h
        00100365 00              ??         00h
        00100366 00              ??         00h
        00100367 00              ??         00h
                             //
                             // .note.gnu.build-id 
                             // SHT_NOTE  [0x368 - 0x38b]
                             // ram:00100368-ram:0010038b
                             //
                             GnuBuildId_00100368                             XREF[2]:     00100210(*), 
                                                                                          _elfSectionHeaders::000000d0(*)  
        00100368 04 00 00        GnuBuildId                                                  Length of name field
                 00 14 00 
                 00 00 03 
                             //
                             // .note.ABI-tag 
                             // SHT_NOTE  [0x38c - 0x3ab]
                             // ram:0010038c-ram:001003ab
                             //
                             __abi_tag                                       XREF[1]:     _elfSectionHeaders::00000110(*)  
        0010038c 04 00 00        NoteAbiTag                                                  Length of name field
                 00 10 00 
                 00 00 01 
                             //
                             // .gnu.hash 
                             // SHT_GNU_HASH  [0x3b0 - 0x3e3]
                             // ram:001003b0-ram:001003e3
                             //
                             __DT_GNU_HASH                                   XREF[2]:     00104de0(*), 
                                                                                          _elfSectionHeaders::00000150(*)  
        001003b0 03 00 00 00     ddw        3h                                               GNU Hash Table - nbucket
        001003b4 13 00 00 00     ddw        13h                                              GNU Hash Table - symbase
        001003b8 01 00 00 00     ddw        1h                                               GNU Hash Table - bloom_size
        001003bc 06 00 00 00     ddw        6h                                               GNU Hash Table - bloom_shift
        001003c0 00 00 b1        dq[1]                                                       GNU Hash Table - bloom
                 00 81 01 
                 10 00
        001003c8 13 00 00        ddw[3]                                                      GNU Hash Table - buckets
                 00 15 00 
                 00 00 16 
        001003d4 28 1d 8c        ddw[4]                                                      GNU Hash Table - chain
                 1c d1 65 
                 ce 6d 67 
                             //
                             // .dynsym 
                             // SHT_DYNSYM  [0x3e8 - 0x60f]
                             // ram:001003e8-ram:0010060f
                             //
                             __DT_SYMTAB                                     XREF[2]:     00104e00(*), 
                                                                                          _elfSectionHeaders::00000190(*)  
        001003e8 00 00 00        Elf64_Sy
                 00 00 00 
                 00 00 00 
                             //
                             // .dynstr 
                             // SHT_STRTAB  [0x610 - 0x7a4]
                             // ram:00100610-ram:001007a4
                             //
                             __DT_STRTAB                                     XREF[2]:     00104df0(*), 
                                                                                          _elfSectionHeaders::000001d0(*)  
        00100610 00              ??         00h
        00100611 5f 5f 67        utf8       u8"__gmon_start__"
                 6d 6f 6e 
                 5f 73 74 
        00100620 5f 49 54        utf8       u8"_ITM_deregisterTMCloneTable"
                 4d 5f 64 
                 65 72 65 
        0010063c 5f 49 54        utf8       u8"_ITM_registerTMCloneTable"
                 4d 5f 72 
                 65 67 69 
        00100656 5f 5a 53        utf8       u8"_ZSt21ios_base_library_initv"
                 74 32 31 
                 69 6f 73 
        00100673 5f 5a 53        utf8       u8"_ZStlsISt11char_traitsIcEERSt13basic_ostrea
                 74 6c 73 
                 49 53 74 
        001006ab 5f 5a 53        utf8       u8"_ZSt4cout"
                 74 34 63 
                 6f 75 74 00
        001006b5 73 65 74        utf8       u8"setvbuf"
                 76 62 75 
                 66 00
        001006bd 73 74 64        utf8       u8"stdin"
                 69 6e 00
        001006c3 70 75 74        utf8       u8"puts"
                 73 00
        001006c8 5f 5f 73        utf8       u8"__stack_chk_fail"
                 74 61 63 
                 6b 5f 63 
        001006d9 65 78 69        utf8       u8"exit"
                 74 00
        001006de 70 75 74        utf8       u8"putchar"
                 63 68 61 
                 72 00
        001006e6 74 69 6d        utf8       u8"time"
                 65 00
        001006eb 72 65 61        utf8       u8"read"
                 64 00
        001006f0 73 74 64        utf8       u8"stdout"
                 6f 75 74 00
        001006f7 5f 5f 6c        utf8       u8"__libc_start_main"
                 69 62 63 
                 5f 73 74 
        00100709 73 72 61        utf8       u8"srand"
                 6e 64 00
        0010070f 5f 5f 63        utf8       u8"__cxa_finalize"
                 78 61 5f 
                 66 69 6e 
        0010071e 5f 5f 69        utf8       u8"__isoc23_strtoul"
                 73 6f 63 
                 32 33 5f 
        0010072f 70 72 69        utf8       u8"printf"
                 6e 74 66 00
        00100736 61 6c 61        utf8       u8"alarm"
                 72 6d 00
        0010073c 6c 69 62        utf8       u8"libstdc++.so.6"
                 73 74 64 
                 63 2b 2b 
        0010074b 6c 69 62        utf8       u8"libc.so.6"
                 63 2e 73 
                 6f 2e 36 00
        00100755 47 4c 49        utf8       u8"GLIBCXX_3.4.32"
                 42 43 58 
                 58 5f 33 
        00100764 47 4c 49        utf8       u8"GLIBCXX_3.4"
                 42 43 58 
                 58 5f 33 
        00100770 47 4c 49        utf8       u8"GLIBC_2.38"
                 42 43 5f 
                 32 2e 33 
        0010077b 47 4c 49        utf8       u8"GLIBC_2.4"
                 42 43 5f 
                 32 2e 34 00
        00100785 47 4c 49        utf8       u8"GLIBC_2.34"
                 42 43 5f 
                 32 2e 33 
        00100790 47 4c 49        utf8       u8"GLIBC_2.2.5"
                 42 43 5f 
                 32 2e 32 
        0010079c 2e 2f 67        utf8       u8"./glibc/"
                 6c 69 62 
                 63 2f 00
                             //
                             // .gnu.version 
                             // SHT_GNU_versym  [0x7a6 - 0x7d3]
                             // ram:001007a6-ram:001007d3
                             //
                             __DT_VERSYM                                     XREF[2]:     00104ef0(*), 
                                                                                          _elfSectionHeaders::00000210(*)  
        001007a6 00 00           dw         0h                                               0
        001007a8 02 00           dw         2h                                               setvbuf
        001007aa 02 00           dw         2h                                               printf
        001007ac 02 00           dw         2h                                               rand
        001007ae 03 00           dw         3h                                               __libc_start_main
        001007b0 02 00           dw         2h                                               time
        001007b2 02 00           dw         2h                                               srand
        001007b4 04 00           dw         4h                                               _ZStlsISt11char_traitsIcEERSt13b
        001007b6 05 00           dw         5h                                               __stack_chk_fail
        001007b8 02 00           dw         2h                                               exit
        001007ba 06 00           dw         6h                                               __isoc23_strtoul
        001007bc 02 00           dw         2h                                               putchar
        001007be 02 00           dw         2h                                               read
        001007c0 02 00           dw         2h                                               puts
        001007c2 07 00           dw         7h                                               _ZSt21ios_base_library_initv
        001007c4 01 00           dw         1h                                               _ITM_deregisterTMCloneTable
        001007c6 01 00           dw         1h                                               __gmon_start__
        001007c8 02 00           dw         2h                                               alarm
        001007ca 01 00           dw         1h                                               _ITM_registerTMCloneTable
        001007cc 02 00           dw         2h                                               stdout
        001007ce 02 00           dw         2h                                               __cxa_finalize
        001007d0 02 00           dw         2h                                               stdin
        001007d2 04 00           dw         4h                                               _ZSt4cout
                             //
                             // .gnu.version_r 
                             // SHT_GNU_verneed  [0x7d8 - 0x857]
                             // ram:001007d8-ram:00100857
                             //
                             __DT_VERNEED                                    XREF[2]:     00104ed0(*), 
                                                                                          _elfSectionHeaders::00000250(*)  
        001007d8 01              ??         01h
        001007d9 00              ??         00h
        001007da 02              ??         02h
        001007db 00              ??         00h
        001007dc 2c              ??         2Ch    ,
        001007dd 01              ??         01h
        001007de 00              ??         00h
        001007df 00              ??         00h
        001007e0 10              ??         10h
        001007e1 00              ??         00h
        001007e2 00              ??         00h
        001007e3 00              ??         00h
        001007e4 30              ??         30h    0
        001007e5 00              ??         00h
        001007e6 00              ??         00h
        001007e7 00              ??         00h
        001007e8 42              ??         42h    B
        001007e9 f8              ??         F8h
        001007ea 97              ??         97h
        001007eb 02              ??         02h
        001007ec 00              ??         00h
        001007ed 00              ??         00h
        001007ee 07              ??         07h
        001007ef 00              ??         00h
        001007f0 45              ??         45h    E
        001007f1 01              ??         01h
        001007f2 00              ??         00h
        001007f3 00              ??         00h
        001007f4 10              ??         10h
        001007f5 00              ??         00h
        001007f6 00              ??         00h
        001007f7 00              ??         00h
        001007f8 74              ??         74h    t
        001007f9 29              ??         29h    )
        001007fa 92              ??         92h
        001007fb 08              ??         08h
        001007fc 00              ??         00h
        001007fd 00              ??         00h
        001007fe 04              ??         04h
        001007ff 00              ??         00h
        00100800 54              ??         54h    T
        00100801 01              ??         01h
        00100802 00              ??         00h
        00100803 00              ??         00h
        00100804 00              ??         00h
        00100805 00              ??         00h
        00100806 00              ??         00h
        00100807 00              ??         00h
        00100808 01              ??         01h
        00100809 00              ??         00h
        0010080a 04              ??         04h
        0010080b 00              ??         00h
        0010080c 3b              ??         3Bh    ;
        0010080d 01              ??         01h
        0010080e 00              ??         00h                                              ?  ->  00100000
        0010080f 00              ??         00h
        00100810 10              ??         10h
        00100811 00              ??         00h
        00100812 00              ??         00h
        00100813 00              ??         00h
        00100814 00              ??         00h
        00100815 00              ??         00h
        00100816 00              ??         00h
        00100817 00              ??         00h
        00100818 b8              ??         B8h
        00100819 91              ??         91h
        0010081a 96              ??         96h
        0010081b 06              ??         06h
        0010081c 00              ??         00h
        0010081d 00              ??         00h
        0010081e 06              ??         06h
        0010081f 00              ??         00h
        00100820 60              ??         60h    `
        00100821 01              ??         01h
        00100822 00              ??         00h
        00100823 00              ??         00h
        00100824 10              ??         10h
        00100825 00              ??         00h
        00100826 00              ??         00h
        00100827 00              ??         00h
        00100828 14              ??         14h
        00100829 69              ??         69h    i
        0010082a 69              ??         69h    i
        0010082b 0d              ??         0Dh
        0010082c 00              ??         00h
        0010082d 00              ??         00h
        0010082e 05              ??         05h
        0010082f 00              ??         00h
        00100830 6b              ??         6Bh    k
        00100831 01              ??         01h
        00100832 00              ??         00h
        00100833 00              ??         00h
        00100834 10              ??         10h
        00100835 00              ??         00h
        00100836 00              ??         00h
        00100837 00              ??         00h
        00100838 b4              ??         B4h
        00100839 91              ??         91h
        0010083a 96              ??         96h
        0010083b 06              ??         06h
        0010083c 00              ??         00h
        0010083d 00              ??         00h
        0010083e 03              ??         03h
        0010083f 00              ??         00h
        00100840 75              ??         75h    u
        00100841 01              ??         01h
        00100842 00              ??         00h
        00100843 00              ??         00h
        00100844 10              ??         10h
        00100845 00              ??         00h
        00100846 00              ??         00h
        00100847 00              ??         00h
        00100848 75              ??         75h    u
        00100849 1a              ??         1Ah
        0010084a 69              ??         69h    i
        0010084b 09              ??         09h
        0010084c 00              ??         00h
        0010084d 00              ??         00h
        0010084e 02              ??         02h
        0010084f 00              ??         00h
        00100850 80              ??         80h
        00100851 01              ??         01h
        00100852 00              ??         00h
        00100853 00              ??         00h
        00100854 00              ??         00h
        00100855 00              ??         00h
        00100856 00              ??         00h
        00100857 00              ??         00h
                             //
                             // .rela.dyn 
                             // SHT_RELA  [0x858 - 0x977]
                             // ram:00100858-ram:00100977
                             //
                             __DT_RELA                                       XREF[2]:     00104e80(*), 
                                                                                          _elfSectionHeaders::00000290(*)  
        00100858 30 4d 00        Elf64_Re                                                    location to apply the relocation
                 00 00 00 
                 00 00 08 
                             //
                             // .rela.plt 
                             // SHT_RELA  [0x978 - 0xaaf]
                             // ram:00100978-ram:00100aaf
                             //
                             __DT_JMPREL                                     XREF[2]:     00104e70(*), 
                                                                                          _elfSectionHeaders::000002d0(*)  
        00100978 70 4f 00        Elf64_Re                                                    location to apply the relocation
                 00 00 00 
                 00 00 07 
                             //
                             // .init 
                             // SHT_PROGBITS  [0x1000 - 0x101a]
                             // ram:00101000-ram:0010101a
                             //
                             **************************************************************
                             *                          FUNCTION                          *
                             **************************************************************
                             int __stdcall _init(EVP_PKEY_CTX * ctx)
             int               EAX:4          <RETURN>
             EVP_PKEY_CTX *    RDI:8          ctx
                             __DT_INIT                                       XREF[4]:     Entry Point(*), 001000f8(*), 
                             _init                                                        00104d80(*), 
                                                                                          _elfSectionHeaders::00000310(*)  
        00101000 f3 0f 1e fa     ENDBR64
        00101004 48 83 ec 08     SUB        RSP,0x8
        00101008 48 8b 05        MOV        RAX=><EXTERNAL>::__gmon_start__,qword ptr [-><   = ??
                 e1 3f 00 00                                                                 = 00106078
        0010100f 48 85 c0        TEST       RAX,RAX
        00101012 74 02           JZ         LAB_00101016
        00101014 ff d0           CALL       RAX=><EXTERNAL>::__gmon_start__                  undefined __gmon_start__()
                             LAB_00101016                                    XREF[1]:     00101012(j)  
        00101016 48 83 c4 08     ADD        RSP,0x8
        0010101a c3              RET
                             //
                             // .plt 
                             // SHT_PROGBITS  [0x1020 - 0x10ff]
                             // ram:00101020-ram:001010ff
                             //
                             **************************************************************
                             *                          FUNCTION                          *
                             **************************************************************
                             undefined FUN_00101020()
             undefined         <UNASSIGNED>   <RETURN>
                             FUN_00101020                                    XREF[16]:    00101039(c), 00101049(c), 
                                                                                          00101059(c), 00101069(c), 
                                                                                          00101079(c), 00101089(c), 
                                                                                          00101099(c), 001010a9(c), 
                                                                                          001010b9(c), 001010c9(c), 
                                                                                          001010d9(c), 001010e9(c), 
                                                                                          001010f9(c), 0010384c, 
                                                                                          00103908(*), 
                                                                                          _elfSectionHeaders::00000350(*)  
        00101020 ff 35 3a        PUSH       qword ptr [PTR_00104f60]                         = 00000000
                 3f 00 00
        00101026 ff 25 3c        JMP        qword ptr [PTR_00104f68]
                 3f 00 00
        0010102c 0f              ??         0Fh
        0010102d 1f              ??         1Fh
        0010102e 40              ??         40h    @
        0010102f 00              ??         00h
        00101030 f3 0f 1e fa     ENDBR64
        00101034 68 00 00        PUSH       0x0
                 00 00
        00101039 e9 e2 ff        JMP        FUN_00101020                                     undefined FUN_00101020()
                 ff ff
                             -- Flow Override: CALL_RETURN (CALL_TERMINATOR)
        0010103e 66 90           NOP
        00101040 f3 0f 1e fa     ENDBR64
        00101044 68 01 00        PUSH       0x1
                 00 00
        00101049 e9 d2 ff        JMP        FUN_00101020                                     undefined FUN_00101020()
                 ff ff
                             -- Flow Override: CALL_RETURN (CALL_TERMINATOR)
        0010104e 66 90           NOP
        00101050 f3 0f 1e fa     ENDBR64
        00101054 68 02 00        PUSH       0x2
                 00 00
        00101059 e9 c2 ff        JMP        FUN_00101020                                     undefined FUN_00101020()
                 ff ff
                             -- Flow Override: CALL_RETURN (CALL_TERMINATOR)
        0010105e 66 90           NOP
        00101060 f3 0f 1e fa     ENDBR64
        00101064 68 03 00        PUSH       0x3
                 00 00
        00101069 e9 b2 ff        JMP        FUN_00101020                                     undefined FUN_00101020()
                 ff ff
                             -- Flow Override: CALL_RETURN (CALL_TERMINATOR)
        0010106e 66 90           NOP
        00101070 f3 0f 1e fa     ENDBR64
        00101074 68 04 00        PUSH       0x4
                 00 00
        00101079 e9 a2 ff        JMP        FUN_00101020                                     undefined FUN_00101020()
                 ff ff
                             -- Flow Override: CALL_RETURN (CALL_TERMINATOR)
        0010107e 66 90           NOP
        00101080 f3 0f 1e fa     ENDBR64
        00101084 68 05 00        PUSH       0x5
                 00 00
        00101089 e9 92 ff        JMP        FUN_00101020                                     undefined FUN_00101020()
                 ff ff
                             -- Flow Override: CALL_RETURN (CALL_TERMINATOR)
        0010108e 66 90           NOP
        00101090 f3 0f 1e fa     ENDBR64
        00101094 68 06 00        PUSH       0x6
                 00 00
        00101099 e9 82 ff        JMP        FUN_00101020                                     undefined FUN_00101020()
                 ff ff
                             -- Flow Override: CALL_RETURN (CALL_TERMINATOR)
        0010109e 66 90           NOP
        001010a0 f3 0f 1e fa     ENDBR64
        001010a4 68 07 00        PUSH       0x7
                 00 00
        001010a9 e9 72 ff        JMP        FUN_00101020                                     undefined FUN_00101020()
                 ff ff
                             -- Flow Override: CALL_RETURN (CALL_TERMINATOR)
        001010ae 66 90           NOP
        001010b0 f3 0f 1e fa     ENDBR64
        001010b4 68 08 00        PUSH       0x8
                 00 00
        001010b9 e9 62 ff        JMP        FUN_00101020                                     undefined FUN_00101020()
                 ff ff
                             -- Flow Override: CALL_RETURN (CALL_TERMINATOR)
        001010be 66 90           NOP
        001010c0 f3 0f 1e fa     ENDBR64
        001010c4 68 09 00        PUSH       0x9
                 00 00
        001010c9 e9 52 ff        JMP        FUN_00101020                                     undefined FUN_00101020()
                 ff ff
                             -- Flow Override: CALL_RETURN (CALL_TERMINATOR)
        001010ce 66 90           NOP
        001010d0 f3 0f 1e fa     ENDBR64
        001010d4 68 0a 00        PUSH       0xa
                 00 00
        001010d9 e9 42 ff        JMP        FUN_00101020                                     undefined FUN_00101020()
                 ff ff
                             -- Flow Override: CALL_RETURN (CALL_TERMINATOR)
        001010de 66 90           NOP
        001010e0 f3 0f 1e fa     ENDBR64
        001010e4 68 0b 00        PUSH       0xb
                 00 00
        001010e9 e9 32 ff        JMP        FUN_00101020                                     undefined FUN_00101020()
                 ff ff
                             -- Flow Override: CALL_RETURN (CALL_TERMINATOR)
        001010ee 66 90           NOP
        001010f0 f3 0f 1e fa     ENDBR64
        001010f4 68 0c 00        PUSH       0xc
                 00 00
        001010f9 e9 22 ff        JMP        FUN_00101020                                     undefined FUN_00101020()
                 ff ff
                             -- Flow Override: CALL_RETURN (CALL_TERMINATOR)
        001010fe 66 90           NOP
                             //
                             // .plt.got 
                             // SHT_PROGBITS  [0x1100 - 0x110f]
                             // ram:00101100-ram:0010110f
                             //
                             **************************************************************
                             *                       THUNK FUNCTION                       *
                             **************************************************************
                             thunk undefined __cxa_finalize()
                               Thunked-Function: <EXTERNAL>::__cxa_final
             undefined         <UNASSIGNED>   <RETURN>
                             <EXTERNAL>::__cxa_finalize                      XREF[4]:     __do_global_dtors_aux:001012a2(c
                                                                                          00103854, 00103930(*), 
                                                                                          _elfSectionHeaders::00000390(*)  
        00101100 f3 0f 1e fa     ENDBR64
        00101104 ff 25 ce        JMP        qword ptr [-><EXTERNAL>::__cxa_finalize]         undefined __cxa_finalize()
                 3e 00 00
                             -- Flow Override: CALL_RETURN (COMPUTED_CALL_TERMINATOR)
        0010110a 66              ??         66h    f
        0010110b 0f              ??         0Fh
        0010110c 1f              ??         1Fh
        0010110d 44              ??         44h    D
        0010110e 00              ??         00h
        0010110f 00              ??         00h
                             //
                             // .plt.sec 
                             // SHT_PROGBITS  [0x1110 - 0x11df]
                             // ram:00101110-ram:001011df
                             //
                             **************************************************************
                             *                       THUNK FUNCTION                       *
                             **************************************************************
                             thunk int setvbuf(FILE * __stream, char * __buf, int __m
                               Thunked-Function: <EXTERNAL>::setvbuf
             int               EAX:4          <RETURN>
             FILE *            RDI:8          __stream
             char *            RSI:8          __buf
             int               EDX:4          __modes
             size_t            RCX:8          __n
                             <EXTERNAL>::setvbuf                             XREF[5]:     setup:00101a65(c), 
                                                                                          setup:00101a83(c), 0010385c, 
                                                                                          00103948(*), 
                                                                                          _elfSectionHeaders::000003d0(*)  
        00101110 f3 0f 1e fa     ENDBR64
        00101114 ff 25 56        JMP        qword ptr [-><EXTERNAL>::setvbuf]                int setvbuf(FILE * __stream, cha
                 3e 00 00
                             -- Flow Override: CALL_RETURN (COMPUTED_CALL_TERMINATOR)
        0010111a 66              ??         66h    f
        0010111b 0f              ??         0Fh
        0010111c 1f              ??         1Fh
        0010111d 44              ??         44h    D
        0010111e 00              ??         00h
        0010111f 00              ??         00h
                             **************************************************************
                             *                       THUNK FUNCTION                       *
                             **************************************************************
                             thunk int printf(char * __format, ...)
                               Thunked-Function: <EXTERNAL>::printf
             int               EAX:4          <RETURN>
             char *            RDI:8          __format
                             <EXTERNAL>::printf                              XREF[14]:    error:00101312(c), 
                                                                                          cls:00101358(c), cls:00101376(c), 
                                                                                          banana:0010144d(c), 
                                                                                          rocket:001014e8(c), 
                                                                                          mushroom:00101542(c), 
                                                                                          custom:001015a9(c), 
                                                                                          custom:001015ec(c), 
                                                                                          custom:001015fd(c), 
                                                                                          race:0010166e(c), 
                                                                                          race:001016cc(c), 
                                                                                          race:00101727(c), 
                                                                                          race:0010177a(c), 
                                                                                          race:0010186d(c)  
        00101120 f3 0f 1e fa     ENDBR64
        00101124 ff 25 4e        JMP        qword ptr [-><EXTERNAL>::printf]                 int printf(char * __format, ...)
                 3e 00 00
                             -- Flow Override: CALL_RETURN (COMPUTED_CALL_TERMINATOR)
        0010112a 66              ??         66h    f
        0010112b 0f              ??         0Fh
        0010112c 1f              ??         1Fh
        0010112d 44              ??         44h    D
        0010112e 00              ??         00h
        0010112f 00              ??         00h
                             **************************************************************
                             *                       THUNK FUNCTION                       *
                             **************************************************************
                             thunk int rand(void)
                               Thunked-Function: <EXTERNAL>::rand
             int               EAX:4          <RETURN>
                             <EXTERNAL>::rand                                XREF[1]:     race:00101697(c)  
        00101130 f3 0f 1e fa     ENDBR64
        00101134 ff 25 46        JMP        qword ptr [-><EXTERNAL>::rand]                   int rand(void)
                 3e 00 00
                             -- Flow Override: CALL_RETURN (COMPUTED_CALL_TERMINATOR)
        0010113a 66              ??         66h    f
        0010113b 0f              ??         0Fh
        0010113c 1f              ??         1Fh
        0010113d 44              ??         44h    D
        0010113e 00              ??         00h
        0010113f 00              ??         00h
                             **************************************************************
                             *                       THUNK FUNCTION                       *
                             **************************************************************
                             thunk time_t time(time_t * __timer)
                               Thunked-Function: <EXTERNAL>::time
             time_t            RAX:8          <RETURN>
             time_t *          RDI:8          __timer
                             <EXTERNAL>::time                                XREF[1]:     race:0010168b(c)  
        00101140 f3 0f 1e fa     ENDBR64
        00101144 ff 25 3e        JMP        qword ptr [-><EXTERNAL>::time]                   time_t time(time_t * __timer)
                 3e 00 00
                             -- Flow Override: CALL_RETURN (COMPUTED_CALL_TERMINATOR)
        0010114a 66              ??         66h    f
        0010114b 0f              ??         0Fh
        0010114c 1f              ??         1Fh
        0010114d 44              ??         44h    D
        0010114e 00              ??         00h
        0010114f 00              ??         00h
                             **************************************************************
                             *                       THUNK FUNCTION                       *
                             **************************************************************
                             thunk void srand(uint __seed)
                               Thunked-Function: <EXTERNAL>::srand
             void              <VOID>         <RETURN>
             uint              EDI:4          __seed
                             <EXTERNAL>::srand                               XREF[1]:     race:00101692(c)  
        00101150 f3 0f 1e fa     ENDBR64
        00101154 ff 25 36        JMP        qword ptr [-><EXTERNAL>::srand]                  void srand(uint __seed)
                 3e 00 00
                             -- Flow Override: CALL_RETURN (COMPUTED_CALL_TERMINATOR)
        0010115a 66              ??         66h    f
        0010115b 0f              ??         0Fh
        0010115c 1f              ??         1Fh
        0010115d 44              ??         44h    D
        0010115e 00              ??         00h
        0010115f 00              ??         00h
                             **************************************************************
                             *                       THUNK FUNCTION                       *
                             **************************************************************
                             thunk ostream * operator<<(ostream * param_1, char * par
                               Thunked-Function: <EXTERNAL>::std::operat
             ostream *         RAX:8          <RETURN>
             ostream *         RDI:8          param_1
             char *            RSI:8          param_2
                             <EXTERNAL>::std::operator<<                     XREF[7]:     race:00101886(c), 
                                                                                          power_up:001018ee(c), 
                                                                                          power_up:00101907(c), 
                                                                                          power_up:00101920(c), 
                                                                                          power_up:00101939(c), 
                                                                                          power_up:00101952(c), 
                                                                                          power_up:0010196b(c)  
        00101160 f3 0f 1e fa     ENDBR64
        00101164 ff 25 2e        JMP        qword ptr [-><EXTERNAL>::std::operator<<]        ostream * operator<<(ostream * p
                 3e 00 00
                             -- Flow Override: CALL_RETURN (COMPUTED_CALL_TERMINATOR)
        0010116a 66              ??         66h    f
        0010116b 0f              ??         0Fh
        0010116c 1f              ??         1Fh
        0010116d 44              ??         44h    D
        0010116e 00              ??         00h
        0010116f 00              ??         00h
                             **************************************************************
                             *                       THUNK FUNCTION                       *
                             **************************************************************
                             thunk noreturn undefined __stack_chk_fail()
                               Thunked-Function: <EXTERNAL>::__stack_chk
             undefined         <UNASSIGNED>   <RETURN>
                             <EXTERNAL>::__stack_chk_fail                    XREF[12]:    error:00101327(c), 
                                                                                          cls:0010138b(c), 
                                                                                          read_num:00101408(c), 
                                                                                          banana:00101462(c), 
                                                                                          banner:001014a3(c), 
                                                                                          rocket:001014fd(c), 
                                                                                          mushroom:00101557(c), 
                                                                                          custom:00101612(c), 
                                                                                          race:001018b4(c), 
                                                                                          power_up:001019e5(c), 
                                                                                          main:00101a25(c), 
                                                                                          setup:00101aa2(c)  
        00101170 f3 0f 1e fa     ENDBR64
        00101174 ff 25 26        JMP        qword ptr [-><EXTERNAL>::__stack_chk_fail]       undefined __stack_chk_fail()
                 3e 00 00
                             -- Flow Override: CALL_RETURN (COMPUTED_CALL_TERMINATOR)
        0010117a 66              ??         66h    f
        0010117b 0f              ??         0Fh
        0010117c 1f              ??         1Fh
        0010117d 44              ??         44h    D
        0010117e 00              ??         00h
        0010117f 00              ??         00h
                             **************************************************************
                             *                       THUNK FUNCTION                       *
                             **************************************************************
                             thunk noreturn void exit(int __status)
                               Thunked-Function: <EXTERNAL>::exit
             void              <VOID>         <RETURN>
             int               EDI:4          __status
                             <EXTERNAL>::exit                                XREF[2]:     race:00101751(c), 
                                                                                          power_up:001019cb(c)  
        00101180 f3 0f 1e fa     ENDBR64
        00101184 ff 25 1e        JMP        qword ptr [-><EXTERNAL>::exit]                   void exit(int __status)
                 3e 00 00
                             -- Flow Override: CALL_RETURN (COMPUTED_CALL_TERMINATOR)
        0010118a 66              ??         66h    f
        0010118b 0f              ??         0Fh
        0010118c 1f              ??         1Fh
        0010118d 44              ??         44h    D
        0010118e 00              ??         00h
        0010118f 00              ??         00h
                             **************************************************************
                             *                       THUNK FUNCTION                       *
                             **************************************************************
                             thunk undefined __isoc23_strtoul()
                               Thunked-Function: <EXTERNAL>::__isoc23_st
             undefined         <UNASSIGNED>   <RETURN>
                             <EXTERNAL>::__isoc23_strtoul                    XREF[1]:     read_num:001013f4(c)  
        00101190 f3 0f 1e fa     ENDBR64
        00101194 ff 25 16        JMP        qword ptr [-><EXTERNAL>::__isoc23_strtoul]       undefined __isoc23_strtoul()
                 3e 00 00
                             -- Flow Override: CALL_RETURN (COMPUTED_CALL_TERMINATOR)
        0010119a 66              ??         66h    f
        0010119b 0f              ??         0Fh
        0010119c 1f              ??         1Fh
        0010119d 44              ??         44h    D
        0010119e 00              ??         00h
        0010119f 00              ??         00h
                             **************************************************************
                             *                       THUNK FUNCTION                       *
                             **************************************************************
                             thunk int putchar(int __c)
                               Thunked-Function: <EXTERNAL>::putchar
             int               EAX:4          <RETURN>
             int               EDI:4          __c
                             <EXTERNAL>::putchar                             XREF[1]:     race:00101738(c)  
        001011a0 f3 0f 1e fa     ENDBR64
        001011a4 ff 25 0e        JMP        qword ptr [-><EXTERNAL>::putchar]                int putchar(int __c)
                 3e 00 00
                             -- Flow Override: CALL_RETURN (COMPUTED_CALL_TERMINATOR)
        001011aa 66              ??         66h    f
        001011ab 0f              ??         0Fh
        001011ac 1f              ??         1Fh
        001011ad 44              ??         44h    D
        001011ae 00              ??         00h
        001011af 00              ??         00h
                             **************************************************************
                             *                       THUNK FUNCTION                       *
                             **************************************************************
                             thunk ssize_t read(int __fd, void * __buf, size_t __nbyt
                               Thunked-Function: <EXTERNAL>::read
             ssize_t           RAX:8          <RETURN>
             int               EDI:4          __fd
             void *            RSI:8          __buf
             size_t            RDX:8          __nbytes
                             <EXTERNAL>::read                                XREF[5]:     read_num:001013de(c), 
                                                                                          custom:001015bf(c), 
                                                                                          race:001016e2(c), 
                                                                                          race:00101790(c), 
                                                                                          race:0010189c(c)  
        001011b0 f3 0f 1e fa     ENDBR64
        001011b4 ff 25 06        JMP        qword ptr [-><EXTERNAL>::read]                   ssize_t read(int __fd, void * __
                 3e 00 00
                             -- Flow Override: CALL_RETURN (COMPUTED_CALL_TERMINATOR)
        001011ba 66              ??         66h    f
        001011bb 0f              ??         0Fh
        001011bc 1f              ??         1Fh
        001011bd 44              ??         44h    D
        001011be 00              ??         00h
        001011bf 00              ??         00h
                             **************************************************************
                             *                       THUNK FUNCTION                       *
                             **************************************************************
                             thunk int puts(char * __s)
                               Thunked-Function: <EXTERNAL>::puts
             int               EAX:4          <RETURN>
             char *            RDI:8          __s
                             <EXTERNAL>::puts                                XREF[2]:     banner:0010148e(c), 
                                                                                          custom:001015ce(c)  
        001011c0 f3 0f 1e fa     ENDBR64
        001011c4 ff 25 fe        JMP        qword ptr [-><EXTERNAL>::puts]                   int puts(char * __s)
                 3d 00 00
                             -- Flow Override: CALL_RETURN (COMPUTED_CALL_TERMINATOR)
        001011ca 66              ??         66h    f
        001011cb 0f              ??         0Fh
        001011cc 1f              ??         1Fh
        001011cd 44              ??         44h    D
        001011ce 00              ??         00h
        001011cf 00              ??         00h
                             **************************************************************
                             *                       THUNK FUNCTION                       *
                             **************************************************************
                             thunk uint alarm(uint __seconds)
                               Thunked-Function: <EXTERNAL>::alarm
             uint              EAX:4          <RETURN>
             uint              EDI:4          __seconds
                             <EXTERNAL>::alarm                               XREF[1]:     setup:00101a8d(c)  
        001011d0 f3 0f 1e fa     ENDBR64
        001011d4 ff 25 f6        JMP        qword ptr [-><EXTERNAL>::alarm]                  uint alarm(uint __seconds)
                 3d 00 00
                             -- Flow Override: CALL_RETURN (COMPUTED_CALL_TERMINATOR)
        001011da 66              ??         66h    f
        001011db 0f              ??         0Fh
        001011dc 1f              ??         1Fh
        001011dd 44              ??         44h    D
        001011de 00              ??         00h
        001011df 00              ??         00h
                             //
                             // .text 
                             // SHT_PROGBITS  [0x11e0 - 0x1aa8]
                             // ram:001011e0-ram:00101aa8
                             //
                             **************************************************************
                             *                          FUNCTION                          *
                             **************************************************************
                             undefined processEntry _start()
             undefined         <UNASSIGNED>   <RETURN>
             undefined8        Stack[-0x10]:8 local_10                                XREF[1]:     001011f2(*)  
                             _start                                          XREF[5]:     Entry Point(*), 00100018(*), 
                                                                                          00103864, 001038f0(*), 
                                                                                          _elfSectionHeaders::00000410(*)  
        001011e0 f3 0f 1e fa     ENDBR64
        001011e4 31 ed           XOR        EBP,EBP
        001011e6 49 89 d1        MOV        R9,RDX
        001011e9 5e              POP        RSI
        001011ea 48 89 e2        MOV        RDX,RSP
        001011ed 48 83 e4 f0     AND        RSP,-0x10
        001011f1 50              PUSH       RAX
        001011f2 54              PUSH       RSP=>local_10
        001011f3 45 31 c0        XOR        R8D,R8D
        001011f6 31 c9           XOR        ECX,ECX
        001011f8 48 8d 3d        LEA        RDI,[main]
                 ed 07 00 00
        001011ff ff 15 db        CALL       qword ptr [-><EXTERNAL>::__libc_start_main]      undefined __libc_start_main()
                 3d 00 00                                                                    = 00106018
        00101205 f4              HLT
        00101206 66              ??         66h    f
        00101207 2e              ??         2Eh    .
        00101208 0f              ??         0Fh
        00101209 1f              ??         1Fh
        0010120a 84              ??         84h
        0010120b 00              ??         00h
        0010120c 00              ??         00h
        0010120d 00              ??         00h
        0010120e 00              ??         00h
        0010120f 00              ??         00h
                             **************************************************************
                             *                          FUNCTION                          *
                             **************************************************************
                             undefined deregister_tm_clones()
             undefined         <UNASSIGNED>   <RETURN>
                             deregister_tm_clones                            XREF[1]:     __do_global_dtors_aux:001012a7(c
        00101210 48 8d 3d        LEA        RDI,[__TMC_END__]
                 f9 3d 00 00
        00101217 48 8d 05        LEA        RAX,[__TMC_END__]
                 f2 3d 00 00
        0010121e 48 39 f8        CMP        RAX,RDI
        00101221 74 15           JZ         LAB_00101238
        00101223 48 8b 05        MOV        RAX=><EXTERNAL>::_ITM_deregisterTMCloneTable,q   = ??
                 be 3d 00 00                                                                 = 00106070
        0010122a 48 85 c0        TEST       RAX,RAX
        0010122d 74 09           JZ         LAB_00101238
        0010122f ff e0           JMP        RAX=><EXTERNAL>::_ITM_deregisterTMCloneTable     undefined _ITM_deregisterTMClone
                             -- Flow Override: CALL_RETURN (COMPUTED_CALL_TERMINATOR)
        00101231 0f              ??         0Fh
        00101232 1f              ??         1Fh
        00101233 80              ??         80h
        00101234 00              ??         00h
        00101235 00              ??         00h
        00101236 00              ??         00h
        00101237 00              ??         00h
                             LAB_00101238                                    XREF[2]:     00101221(j), 0010122d(j)  
        00101238 c3              RET
        00101239 0f              ??         0Fh
        0010123a 1f              ??         1Fh
        0010123b 80              ??         80h
        0010123c 00              ??         00h
        0010123d 00              ??         00h
        0010123e 00              ??         00h
        0010123f 00              ??         00h
                             **************************************************************
                             *                          FUNCTION                          *
                             **************************************************************
                             undefined register_tm_clones()
             undefined         <UNASSIGNED>   <RETURN>
                             register_tm_clones                              XREF[1]:     frame_dummy:001012c0(T), 
                                                                                          frame_dummy:001012c4(c)  
        00101240 48 8d 3d        LEA        RDI,[__TMC_END__]
                 c9 3d 00 00
        00101247 48 8d 35        LEA        RSI,[__TMC_END__]
                 c2 3d 00 00
        0010124e 48 29 fe        SUB        RSI,RDI
        00101251 48 89 f0        MOV        RAX,RSI
        00101254 48 c1 ee 3f     SHR        RSI,0x3f
        00101258 48 c1 f8 03     SAR        RAX,0x3
        0010125c 48 01 c6        ADD        RSI,RAX
        0010125f 48 d1 fe        SAR        RSI,0x1
        00101262 74 14           JZ         LAB_00101278
        00101264 48 8b 05        MOV        RAX=><EXTERNAL>::_ITM_registerTMCloneTable,qwo   = ??
                 8d 3d 00 00                                                                 = 00106088
        0010126b 48 85 c0        TEST       RAX,RAX
        0010126e 74 08           JZ         LAB_00101278
        00101270 ff e0           JMP        RAX=><EXTERNAL>::_ITM_registerTMCloneTable       undefined _ITM_registerTMCloneTa
                             -- Flow Override: CALL_RETURN (COMPUTED_CALL_TERMINATOR)
        00101272 66              ??         66h    f
        00101273 0f              ??         0Fh
        00101274 1f              ??         1Fh
        00101275 44              ??         44h    D
        00101276 00              ??         00h
        00101277 00              ??         00h
                             LAB_00101278                                    XREF[2]:     00101262(j), 0010126e(j)  
        00101278 c3              RET
        00101279 0f              ??         0Fh
        0010127a 1f              ??         1Fh
        0010127b 80              ??         80h
        0010127c 00              ??         00h
        0010127d 00              ??         00h
        0010127e 00              ??         00h
        0010127f 00              ??         00h
                             **************************************************************
                             *                          FUNCTION                          *
                             **************************************************************
                             undefined __do_global_dtors_aux()
             undefined         <UNASSIGNED>   <RETURN>
                             __do_global_dtors_aux                           XREF[2]:     Entry Point(*), 00104d40(*)  
        00101280 f3 0f 1e fa     ENDBR64
        00101284 80 3d 05        CMP        byte ptr [completed.0],0x0
                 3f 00 00 00
        0010128b 75 2b           JNZ        LAB_001012b8
        0010128d 55              PUSH       RBP
        0010128e 48 83 3d        CMP        qword ptr [-><EXTERNAL>::__cxa_finalize],0x0     = 00106090
                 42 3d 00 
                 00 00
        00101296 48 89 e5        MOV        RBP,RSP
        00101299 74 0c           JZ         LAB_001012a7
        0010129b 48 8b 3d        MOV        RDI,qword ptr [->__dso_handle]                   = 00105008
                 66 3d 00 00
        001012a2 e8 59 fe        CALL       <EXTERNAL>::__cxa_finalize                       undefined __cxa_finalize()
                 ff ff
                             LAB_001012a7                                    XREF[1]:     00101299(j)  
        001012a7 e8 64 ff        CALL       deregister_tm_clones                             undefined deregister_tm_clones()
                 ff ff
        001012ac c6 05 dd        MOV        byte ptr [completed.0],0x1
                 3e 00 00 01
        001012b3 5d              POP        RBP
        001012b4 c3              RET
        001012b5 0f              ??         0Fh
        001012b6 1f              ??         1Fh
        001012b7 00              ??         00h
                             LAB_001012b8                                    XREF[1]:     0010128b(j)  
        001012b8 c3              RET
        001012b9 0f              ??         0Fh
        001012ba 1f              ??         1Fh
        001012bb 80              ??         80h
        001012bc 00              ??         00h
        001012bd 00              ??         00h
        001012be 00              ??         00h
        001012bf 00              ??         00h
                             **************************************************************
                             *                       THUNK FUNCTION                       *
                             **************************************************************
                             thunk undefined frame_dummy()
                               Thunked-Function: register_tm_clones
             undefined         <UNASSIGNED>   <RETURN>
                             frame_dummy                                     XREF[2]:     Entry Point(*), 00104d30(*)  
        001012c0 f3 0f 1e fa     ENDBR64
        001012c4 e9 77 ff        JMP        register_tm_clones                               undefined register_tm_clones()
                 ff ff
                             -- Flow Override: CALL_RETURN (CALL_TERMINATOR)
                             **************************************************************
                             * error(char*)                                               *
                             **************************************************************
                             undefined __stdcall error(char * param_1)
             undefined         <UNASSIGNED>   <RETURN>
             char *            RDI:8          param_1
             undefined8        Stack[-0x10]:8 local_10                                XREF[2]:     001012e2(W), 
                                                                                                   00101318(R)  
             undefined8        Stack[-0x20]:8 local_20                                XREF[2]:     001012d5(W), 
                                                                                                   001012e8(R)  
                             _Z5errorPc                                      XREF[5]:     Entry Point(*), race:00101747(c), 
                             error                                                        power_up:001019c1(c), 0010386c, 
                                                                                          00103960(*)  
        001012c9 f3 0f 1e fa     ENDBR64
        001012cd 55              PUSH       RBP
        001012ce 48 89 e5        MOV        RBP,RSP
        001012d1 48 83 ec 20     SUB        RSP,0x20
        001012d5 48 89 7d e8     MOV        qword ptr [RBP + local_20],param_1
        001012d9 64 48 8b        MOV        RAX,qword ptr FS:[0x28]
                 04 25 28 
                 00 00 00
        001012e2 48 89 45 f8     MOV        qword ptr [RBP + local_10],RAX
        001012e6 31 c0           XOR        EAX,EAX
        001012e8 48 8b 45 e8     MOV        RAX,qword ptr [RBP + local_20]
        001012ec 48 8d 15        LEA        RDX,[DAT_00102008]                               = 1Bh
                 15 0d 00 00
        001012f3 48 89 d1        MOV        RCX=>DAT_00102008,RDX                            = 1Bh
        001012f6 48 89 c2        MOV        RDX,RAX
        001012f9 48 8d 05        LEA        RAX,[DAT_00102010]                               = 1Bh
                 10 0d 00 00
        00101300 48 89 c6        MOV        RSI=>DAT_00102010,RAX                            = 1Bh
        00101303 48 8d 05        LEA        RAX,[s_%s[-]_%s%s_00102018]                      = "\n%s[-] %s%s\n"
                 0e 0d 00 00
        0010130a 48 89 c7        MOV        param_1=>s_%s[-]_%s%s_00102018,RAX               = "\n%s[-] %s%s\n"
        0010130d b8 00 00        MOV        EAX,0x0
                 00 00
        00101312 e8 09 fe        CALL       <EXTERNAL>::printf                               int printf(char * __format, ...)
                 ff ff
        00101317 90              NOP
        00101318 48 8b 45 f8     MOV        RAX,qword ptr [RBP + local_10]
        0010131c 64 48 2b        SUB        RAX,qword ptr FS:[0x28]
                 04 25 28 
                 00 00 00
        00101325 74 05           JZ         LAB_0010132c
        00101327 e8 44 fe        CALL       <EXTERNAL>::__stack_chk_fail                     undefined __stack_chk_fail()
                 ff ff
                             -- Flow Override: CALL_RETURN (CALL_TERMINATOR)
                             LAB_0010132c                                    XREF[1]:     00101325(j)  
        0010132c c9              LEAVE
        0010132d c3              RET
                             **************************************************************
                             * cls()                                                      *
                             **************************************************************
                             undefined cls(void)
             undefined         <UNASSIGNED>   <RETURN>
             undefined8        Stack[-0x10]:8 local_10                                XREF[2]:     00101343(W), 
                                                                                                   0010137c(R)  
                             _Z3clsv                                         XREF[4]:     Entry Point(*), 
                             cls                                                          setup:00101a47(c), 00103874, 
                                                                                          00103980(*)  
        0010132e f3 0f 1e fa     ENDBR64
        00101332 55              PUSH       RBP
        00101333 48 89 e5        MOV        RBP,RSP
        00101336 48 83 ec 10     SUB        RSP,0x10
        0010133a 64 48 8b        MOV        RAX,qword ptr FS:[0x28]
                 04 25 28 
                 00 00 00
        00101343 48 89 45 f8     MOV        qword ptr [RBP + local_10],RAX
        00101347 31 c0           XOR        EAX,EAX
        00101349 48 8d 05        LEA        RAX,[DAT_00102025]                               = 1Bh
                 d5 0c 00 00
        00101350 48 89 c7        MOV        RDI=>DAT_00102025,RAX                            = 1Bh
        00101353 b8 00 00        MOV        EAX,0x0
                 00 00
        00101358 e8 c3 fd        CALL       <EXTERNAL>::printf                               int printf(char * __format, ...)
                 ff ff
        0010135d ba 00 00        MOV        EDX,0x0
                 00 00
        00101362 be 00 00        MOV        ESI,0x0
                 00 00
        00101367 48 8d 05        LEA        RAX,[DAT_0010202a]                               = 1Bh
                 bc 0c 00 00
        0010136e 48 89 c7        MOV        RDI=>DAT_0010202a,RAX                            = 1Bh
        00101371 b8 00 00        MOV        EAX,0x0
                 00 00
        00101376 e8 a5 fd        CALL       <EXTERNAL>::printf                               int printf(char * __format, ...)
                 ff ff
        0010137b 90              NOP
        0010137c 48 8b 45 f8     MOV        RAX,qword ptr [RBP + local_10]
        00101380 64 48 2b        SUB        RAX,qword ptr FS:[0x28]
                 04 25 28 
                 00 00 00
        00101389 74 05           JZ         LAB_00101390
        0010138b e8 e0 fd        CALL       <EXTERNAL>::__stack_chk_fail                     undefined __stack_chk_fail()
                 ff ff
                             -- Flow Override: CALL_RETURN (CALL_TERMINATOR)
                             LAB_00101390                                    XREF[1]:     00101389(j)  
        00101390 c9              LEAVE
        00101391 c3              RET
                             **************************************************************
                             * read_num()                                                 *
                             **************************************************************
                             undefined read_num(void)
             undefined         <UNASSIGNED>   <RETURN>
             undefined8        Stack[-0x10]:8 local_10                                XREF[2]:     001013a7(W), 
                                                                                                   001013f9(R)  
             undefined8        Stack[-0x20]:8 local_20                                XREF[1]:     001013c5(W)  
             undefined8        Stack[-0x28]:8 local_28                                XREF[1]:     001013bd(W)  
             undefined8        Stack[-0x30]:8 local_30                                XREF[1]:     001013b5(W)  
             undefined8        Stack[-0x38]:8 local_38                                XREF[3]:     001013ad(W), 
                                                                                                   001013cd(*), 
                                                                                                   001013e3(*)  
                             _Z8read_numv                                    XREF[4]:     Entry Point(*), 
                             read_num                                                     power_up:00101970(c), 0010387c, 
                                                                                          001039a0(*)  
        00101392 f3 0f 1e fa     ENDBR64
        00101396 55              PUSH       RBP
        00101397 48 89 e5        MOV        RBP,RSP
        0010139a 48 83 ec 30     SUB        RSP,0x30
        0010139e 64 48 8b        MOV        RAX,qword ptr FS:[0x28]
                 04 25 28 
                 00 00 00
        001013a7 48 89 45 f8     MOV        qword ptr [RBP + local_10],RAX
        001013ab 31 c0           XOR        EAX,EAX
        001013ad 48 c7 45        MOV        qword ptr [RBP + local_38],0x0
                 d0 00 00 
                 00 00
        001013b5 48 c7 45        MOV        qword ptr [RBP + local_30],0x0
                 d8 00 00 
                 00 00
        001013bd 48 c7 45        MOV        qword ptr [RBP + local_28],0x0
                 e0 00 00 
                 00 00
        001013c5 48 c7 45        MOV        qword ptr [RBP + local_20],0x0
                 e8 00 00 
                 00 00
        001013cd 48 8d 45 d0     LEA        RAX=>local_38,[RBP + -0x30]
        001013d1 ba 1f 00        MOV        EDX,0x1f
                 00 00
        001013d6 48 89 c6        MOV        RSI,RAX
        001013d9 bf 00 00        MOV        EDI,0x0
                 00 00
        001013de e8 cd fd        CALL       <EXTERNAL>::read                                 ssize_t read(int __fd, void * __
                 ff ff
        001013e3 48 8d 45 d0     LEA        RAX=>local_38,[RBP + -0x30]
        001013e7 ba 00 00        MOV        EDX,0x0
                 00 00
        001013ec be 00 00        MOV        ESI,0x0
                 00 00
        001013f1 48 89 c7        MOV        RDI,RAX
        001013f4 e8 97 fd        CALL       <EXTERNAL>::__isoc23_strtoul                     undefined __isoc23_strtoul()
                 ff ff
        001013f9 48 8b 55 f8     MOV        RDX,qword ptr [RBP + local_10]
        001013fd 64 48 2b        SUB        RDX,qword ptr FS:[0x28]
                 14 25 28 
                 00 00 00
        00101406 74 05           JZ         LAB_0010140d
        00101408 e8 63 fd        CALL       <EXTERNAL>::__stack_chk_fail                     undefined __stack_chk_fail()
                 ff ff
                             -- Flow Override: CALL_RETURN (CALL_TERMINATOR)
                             LAB_0010140d                                    XREF[1]:     00101406(j)  
        0010140d c9              LEAVE
        0010140e c3              RET
                             **************************************************************
                             * banana()                                                   *
                             **************************************************************
                             undefined banana(void)
             undefined         <UNASSIGNED>   <RETURN>
             undefined8        Stack[-0x10]:8 local_10                                XREF[2]:     00101424(W), 
                                                                                                   00101453(R)  
                             _Z6bananav                                      XREF[4]:     Entry Point(*), 
                             banana                                                       power_up:0010199b(c), 00103884, 
                                                                                          001039c0(*)  
        0010140f f3 0f 1e fa     ENDBR64
        00101413 55              PUSH       RBP
        00101414 48 89 e5        MOV        RBP,RSP
        00101417 48 83 ec 10     SUB        RSP,0x10
        0010141b 64 48 8b        MOV        RAX,qword ptr FS:[0x28]
                 04 25 28 
                 00 00 00
        00101424 48 89 45 f8     MOV        qword ptr [RBP + local_10],RAX
        00101428 31 c0           XOR        EAX,EAX
        0010142a 48 8d 05        LEA        RAX,[DAT_00102033]                               = 1Bh
                 02 0c 00 00
        00101431 48 89 c2        MOV        RDX=>DAT_00102033,RAX                            = 1Bh
        00101434 48 8d 05        LEA        RAX,[DAT_00102038]                               = 1Bh
                 fd 0b 00 00
        0010143b 48 89 c6        MOV        RSI=>DAT_00102038,RAX                            = 1Bh
        0010143e 48 8d 05        LEA        RAX,[DAT_00102040]                               = 25h    %
                 fb 0b 00 00
        00101445 48 89 c7        MOV        RDI=>DAT_00102040,RAX                            = 25h    %
        00101448 b8 00 00        MOV        EAX,0x0
                 00 00
        0010144d e8 ce fc        CALL       <EXTERNAL>::printf                               int printf(char * __format, ...)
                 ff ff
        00101452 90              NOP
        00101453 48 8b 45 f8     MOV        RAX,qword ptr [RBP + local_10]
        00101457 64 48 2b        SUB        RAX,qword ptr FS:[0x28]
                 04 25 28 
                 00 00 00
        00101460 74 05           JZ         LAB_00101467
        00101462 e8 09 fd        CALL       <EXTERNAL>::__stack_chk_fail                     undefined __stack_chk_fail()
                 ff ff
                             -- Flow Override: CALL_RETURN (CALL_TERMINATOR)
                             LAB_00101467                                    XREF[1]:     00101460(j)  
        00101467 c9              LEAVE
        00101468 c3              RET
                             **************************************************************
                             * banner()                                                   *
                             **************************************************************
                             undefined banner(void)
             undefined         <UNASSIGNED>   <RETURN>
             undefined8        Stack[-0x10]:8 local_10                                XREF[2]:     0010147e(W), 
                                                                                                   00101494(R)  
                             _Z6bannerv                                      XREF[4]:     Entry Point(*), main:00101a07(c), 
                             banner                                                       0010388c, 001039e0(*)  
        00101469 f3 0f 1e fa     ENDBR64
        0010146d 55              PUSH       RBP
        0010146e 48 89 e5        MOV        RBP,RSP
        00101471 48 83 ec 10     SUB        RSP,0x10
        00101475 64 48 8b        MOV        RAX,qword ptr FS:[0x28]
                 04 25 28 
                 00 00 00
        0010147e 48 89 45 f8     MOV        qword ptr [RBP + local_10],RAX
        00101482 31 c0           XOR        EAX,EAX
        00101484 48 8d 05        LEA        RAX,[DAT_00102290]                               = 0Ah
                 05 0e 00 00
        0010148b 48 89 c7        MOV        RDI=>DAT_00102290,RAX                            = 0Ah
        0010148e e8 2d fd        CALL       <EXTERNAL>::puts                                 int puts(char * __s)
                 ff ff
        00101493 90              NOP
        00101494 48 8b 45 f8     MOV        RAX,qword ptr [RBP + local_10]
        00101498 64 48 2b        SUB        RAX,qword ptr FS:[0x28]
                 04 25 28 
                 00 00 00
        001014a1 74 05           JZ         LAB_001014a8
        001014a3 e8 c8 fc        CALL       <EXTERNAL>::__stack_chk_fail                     undefined __stack_chk_fail()
                 ff ff
                             -- Flow Override: CALL_RETURN (CALL_TERMINATOR)
                             LAB_001014a8                                    XREF[1]:     001014a1(j)  
        001014a8 c9              LEAVE
        001014a9 c3              RET
                             **************************************************************
                             * rocket()                                                   *
                             **************************************************************
                             undefined rocket(void)
             undefined         <UNASSIGNED>   <RETURN>
             undefined8        Stack[-0x10]:8 local_10                                XREF[2]:     001014bf(W), 
                                                                                                   001014ee(R)  
                             _Z6rocketv                                      XREF[4]:     Entry Point(*), 
                             rocket                                                       power_up:001019a2(c), 00103894, 
                                                                                          00103a00(*)  
        001014aa f3 0f 1e fa     ENDBR64
        001014ae 55              PUSH       RBP
        001014af 48 89 e5        MOV        RBP,RSP
        001014b2 48 83 ec 10     SUB        RSP,0x10
        001014b6 64 48 8b        MOV        RAX,qword ptr FS:[0x28]
                 04 25 28 
                 00 00 00
        001014bf 48 89 45 f8     MOV        qword ptr [RBP + local_10],RAX
        001014c3 31 c0           XOR        EAX,EAX
        001014c5 48 8d 05        LEA        RAX,[DAT_00102033]                               = 1Bh
                 67 0b 00 00
        001014cc 48 89 c2        MOV        RDX=>DAT_00102033,RAX                            = 1Bh
        001014cf 48 8d 05        LEA        RAX,[DAT_00102bc0]                               = 1Bh
                 ea 16 00 00
        001014d6 48 89 c6        MOV        RSI=>DAT_00102bc0,RAX                            = 1Bh
        001014d9 48 8d 05        LEA        RAX,[DAT_00102bc8]                               = 25h    %
                 e8 16 00 00
        001014e0 48 89 c7        MOV        RDI=>DAT_00102bc8,RAX                            = 25h    %
        001014e3 b8 00 00        MOV        EAX,0x0
                 00 00
        001014e8 e8 33 fc        CALL       <EXTERNAL>::printf                               int printf(char * __format, ...)
                 ff ff
        001014ed 90              NOP
        001014ee 48 8b 45 f8     MOV        RAX,qword ptr [RBP + local_10]
        001014f2 64 48 2b        SUB        RAX,qword ptr FS:[0x28]
                 04 25 28 
                 00 00 00
        001014fb 74 05           JZ         LAB_00101502
        001014fd e8 6e fc        CALL       <EXTERNAL>::__stack_chk_fail                     undefined __stack_chk_fail()
                 ff ff
                             -- Flow Override: CALL_RETURN (CALL_TERMINATOR)
                             LAB_00101502                                    XREF[1]:     001014fb(j)  
        00101502 c9              LEAVE
        00101503 c3              RET
                             **************************************************************
                             * mushroom()                                                 *
                             **************************************************************
                             undefined mushroom(void)
             undefined         <UNASSIGNED>   <RETURN>
             undefined8        Stack[-0x10]:8 local_10                                XREF[2]:     00101519(W), 
                                                                                                   00101548(R)  
                             _Z8mushroomv                                    XREF[4]:     Entry Point(*), 
                             mushroom                                                     power_up:001019a9(c), 0010389c, 
                                                                                          00103a20(*)  
        00101504 f3 0f 1e fa     ENDBR64
        00101508 55              PUSH       RBP
        00101509 48 89 e5        MOV        RBP,RSP
        0010150c 48 83 ec 10     SUB        RSP,0x10
        00101510 64 48 8b        MOV        RAX,qword ptr FS:[0x28]
                 04 25 28 
                 00 00 00
        00101519 48 89 45 f8     MOV        qword ptr [RBP + local_10],RAX
        0010151d 31 c0           XOR        EAX,EAX
        0010151f 48 8d 05        LEA        RAX,[DAT_00102033]                               = 1Bh
                 0d 0b 00 00
        00101526 48 89 c2        MOV        RDX=>DAT_00102033,RAX                            = 1Bh
        00101529 48 8d 05        LEA        RAX,[DAT_00102010]                               = 1Bh
                 e0 0a 00 00
        00101530 48 89 c6        MOV        RSI=>DAT_00102010,RAX                            = 1Bh
        00101533 48 8d 05        LEA        RAX,[DAT_001031b8]                               = 25h    %
                 7e 1c 00 00
        0010153a 48 89 c7        MOV        RDI=>DAT_001031b8,RAX                            = 25h    %
        0010153d b8 00 00        MOV        EAX,0x0
                 00 00
        00101542 e8 d9 fb        CALL       <EXTERNAL>::printf                               int printf(char * __format, ...)
                 ff ff
        00101547 90              NOP
        00101548 48 8b 45 f8     MOV        RAX,qword ptr [RBP + local_10]
        0010154c 64 48 2b        SUB        RAX,qword ptr FS:[0x28]
                 04 25 28 
                 00 00 00
        00101555 74 05           JZ         LAB_0010155c
        00101557 e8 14 fc        CALL       <EXTERNAL>::__stack_chk_fail                     undefined __stack_chk_fail()
                 ff ff
                             -- Flow Override: CALL_RETURN (CALL_TERMINATOR)
                             LAB_0010155c                                    XREF[1]:     00101555(j)  
        0010155c c9              LEAVE
        0010155d c3              RET
                             **************************************************************
                             * custom()                                                   *
                             **************************************************************
                             undefined custom(void)
             undefined         <UNASSIGNED>   <RETURN>
             undefined8        Stack[-0x10]:8 local_10                                XREF[2]:     00101573(W), 
                                                                                                   00101603(R)  
             undefined4        Stack[-0x18]:4 local_18                                XREF[1]:     00101589(W)  
             undefined8        Stack[-0x20]:8 local_20                                XREF[1]:     00101581(W)  
             undefined8        Stack[-0x28]:8 local_28                                XREF[3]:     00101579(W), 
                                                                                                   001015ae(*), 
                                                                                                   001015f1(*)  
                             _Z6customv                                      XREF[4]:     Entry Point(*), 
                             custom                                                       power_up:001019b0(c), 001038a4, 
                                                                                          00103a40(*)  
        0010155e f3 0f 1e fa     ENDBR64
        00101562 55              PUSH       RBP
        00101563 48 89 e5        MOV        RBP,RSP
        00101566 48 83 ec 20     SUB        RSP,0x20
        0010156a 64 48 8b        MOV        RAX,qword ptr FS:[0x28]
                 04 25 28 
                 00 00 00
        00101573 48 89 45 f8     MOV        qword ptr [RBP + local_10],RAX
        00101577 31 c0           XOR        EAX,EAX
        00101579 48 c7 45        MOV        qword ptr [RBP + local_28],0x0
                 e0 00 00 
                 00 00
        00101581 48 c7 45        MOV        qword ptr [RBP + local_20],0x0
                 e8 00 00 
                 00 00
        00101589 c7 45 f0        MOV        dword ptr [RBP + local_18],0x0
                 00 00 00 00
        00101590 48 8d 05        LEA        RAX,[DAT_00102038]                               = 1Bh
                 a1 0a 00 00
        00101597 48 89 c6        MOV        RSI=>DAT_00102038,RAX                            = 1Bh
        0010159a 48 8d 05        LEA        RAX,[s_%s[!]_Enter_name_for_your_Power_U_00103   = "\n%s[!] Enter name for your P
                 27 1f 00 00
        001015a1 48 89 c7        MOV        RDI=>s_%s[!]_Enter_name_for_your_Power_U_00103   = "\n%s[!] Enter name for your P
        001015a4 b8 00 00        MOV        EAX,0x0
                 00 00
        001015a9 e8 72 fb        CALL       <EXTERNAL>::printf                               int printf(char * __format, ...)
                 ff ff
        001015ae 48 8d 45 e0     LEA        RAX=>local_28,[RBP + -0x20]
        001015b2 ba 13 00        MOV        EDX,0x13
                 00 00
        001015b7 48 89 c6        MOV        RSI,RAX
        001015ba bf 00 00        MOV        EDI,0x0
                 00 00
        001015bf e8 ec fb        CALL       <EXTERNAL>::read                                 ssize_t read(int __fd, void * __
                 ff ff
        001015c4 48 8d 05        LEA        RAX,[DAT_001034f0]                               = 0Ah
                 25 1f 00 00
        001015cb 48 89 c7        MOV        RDI=>DAT_001034f0,RAX                            = 0Ah
        001015ce e8 ed fb        CALL       <EXTERNAL>::puts                                 int puts(char * __s)
                 ff ff
        001015d3 48 8d 05        LEA        RAX,[DAT_00102038]                               = 1Bh
                 5e 0a 00 00
        001015da 48 89 c6        MOV        RSI=>DAT_00102038,RAX                            = 1Bh
        001015dd 48 8d 05        LEA        RAX,[s_%s[!]_You_start_the_race_with:_00103630]  = "\n%s[!] You start the race wi
                 4c 20 00 00
        001015e4 48 89 c7        MOV        RDI=>s_%s[!]_You_start_the_race_with:_00103630   = "\n%s[!] You start the race wi
        001015e7 b8 00 00        MOV        EAX,0x0
                 00 00
        001015ec e8 2f fb        CALL       <EXTERNAL>::printf                               int printf(char * __format, ...)
                 ff ff
        001015f1 48 8d 45 e0     LEA        RAX=>local_28,[RBP + -0x20]
        001015f5 48 89 c7        MOV        RDI,RAX
        001015f8 b8 00 00        MOV        EAX,0x0
                 00 00
        001015fd e8 1e fb        CALL       <EXTERNAL>::printf                               int printf(char * __format, ...)
                 ff ff
        00101602 90              NOP
        00101603 48 8b 45 f8     MOV        RAX,qword ptr [RBP + local_10]
        00101607 64 48 2b        SUB        RAX,qword ptr FS:[0x28]
                 04 25 28 
                 00 00 00
        00101610 74 05           JZ         LAB_00101617
        00101612 e8 59 fb        CALL       <EXTERNAL>::__stack_chk_fail                     undefined __stack_chk_fail()
                 ff ff
                             -- Flow Override: CALL_RETURN (CALL_TERMINATOR)
                             LAB_00101617                                    XREF[1]:     00101610(j)  
        00101617 c9              LEAVE
        00101618 c3              RET
                             **************************************************************
                             * race()                                                     *
                             **************************************************************
                             undefined race(void)
             undefined         <UNASSIGNED>   <RETURN>
             undefined8        Stack[-0x10]:8 local_10                                XREF[1]:     001018b9(R)  
             undefined8        Stack[-0x20]:8 local_20                                XREF[2]:     0010162f(W), 
                                                                                                   001018a5(R)  
             undefined1        Stack[-0x21]:1 local_21                                XREF[1]:     00101651(W)  
             undefined2        Stack[-0x23]:2 local_23                                XREF[2]:     0010164b(W), 
                                                                                                   0010177f(*)  
             undefined2        Stack[-0x25]:2 local_25                                XREF[3]:     00101680(W), 
                                                                                                   001016d1(*), 
                                                                                                   001016f1(R)  
             undefined8        Stack[-0x30]:8 local_30                                XREF[1]:     00101647(W)  
             undefined8        Stack[-0x38]:8 local_38                                XREF[1]:     0010163c(W)  
             undefined8        Stack[-0x40]:8 local_40                                XREF[3]:     00101828(W), 
                                                                                                   0010182c(R), 
                                                                                                   0010188b(R)  
             undefined8        Stack[-0x48]:8 local_48                                XREF[1]:     001017ac(W)  
             undefined8        Stack[-0x50]:8 local_50                                XREF[3]:     00101673(W), 
                                                                                                   0010172c(RW), 
                                                                                                   00101756(R)  
             undefined4        Stack[-0x54]:4 local_54                                XREF[3]:     001016ad(W), 
                                                                                                   001016b0(R), 
                                                                                                   001016e7(R)  
             undefined4        Stack[-0x58]:4 local_58                                XREF[2]:     0010179b(W), 
                                                                                                   001017a2(R)  
             undefined8        Stack[-0x60]:8 local_60                                XREF[2]:     001017ec(RW), 
                                                                                                   0010181d(*)  
             undefined1        Stack[-0x67]:1 local_67                                XREF[2]:     0010183a(*), 
                                                                                                   00101844(*)  
             undefined1        Stack[-0x68]:1 local_68                                XREF[1]:     00101837(*)  
                             _Z4racev                                        XREF[4]:     Entry Point(*), 
                             race                                                         power_up:001019d0(c), 001038ac, 
                                                                                          00103a60(*)  
        00101619 f3 0f 1e fa     ENDBR64
        0010161d 55              PUSH       RBP
        0010161e 48 89 e5        MOV        RBP,RSP
        00101621 53              PUSH       RBX
        00101622 48 83 ec 48     SUB        RSP,0x48
        00101626 64 48 8b        MOV        RAX,qword ptr FS:[0x28]
                 04 25 28 
                 00 00 00
        0010162f 48 89 45 e8     MOV        qword ptr [RBP + local_20],RAX
        00101633 31 c0           XOR        EAX,EAX
        00101635 48 8d 05        LEA        RAX,[DAT_00103651]                               = 4Ch    L
                 15 20 00 00
        0010163c 48 89 45 d0     MOV        qword ptr [RBP + local_38],RAX=>DAT_00103651     = 4Ch    L
        00101640 48 8d 05        LEA        RAX,[s_RIGHT_00103656]                           = "RIGHT"
                 0f 20 00 00
        00101647 48 89 45 d8     MOV        qword ptr [RBP + local_30],RAX=>s_RIGHT_00103656 = "RIGHT"
        0010164b 66 c7 45        MOV        word ptr [RBP + local_23],0x0
                 e5 00 00
        00101651 c6 45 e7 00     MOV        byte ptr [RBP + local_21],0x0
        00101655 48 8d 05        LEA        RAX,[DAT_00102008]                               = 1Bh
                 ac 09 00 00
        0010165c 48 89 c6        MOV        RSI=>DAT_00102008,RAX                            = 1Bh
        0010165f 48 8d 05        LEA        RAX,[s_%s_[*]_There_are_7_some_turns_(L_001036   = "%s\n\n[*] There are 7 some tu
                 fa 1f 00 00
        00101666 48 89 c7        MOV        RDI=>s_%s_[*]_There_are_7_some_turns_(L_001036   = "%s\n\n[*] There are 7 some tu
        00101669 b8 00 00        MOV        EAX,0x0
                 00 00
        0010166e e8 ad fa        CALL       <EXTERNAL>::printf                               int printf(char * __format, ...)
                 ff ff
        00101673 48 c7 45        MOV        qword ptr [RBP + local_50],0x0
                 b8 00 00 
                 00 00
        0010167b e9 d6 00        JMP        LAB_00101756
                 00 00
                             LAB_00101680                                    XREF[1]:     0010175b(j)  
        00101680 66 c7 45        MOV        word ptr [RBP + local_25],0x0
                 e3 00 00
        00101686 bf 00 00        MOV        EDI,0x0
                 00 00
        0010168b e8 b0 fa        CALL       <EXTERNAL>::time                                 time_t time(time_t * __timer)
                 ff ff
        00101690 89 c7           MOV        EDI,EAX
        00101692 e8 b9 fa        CALL       <EXTERNAL>::srand                                void srand(uint __seed)
                 ff ff
        00101697 e8 94 fa        CALL       <EXTERNAL>::rand                                 int rand(void)
                 ff ff
        0010169c 89 c2           MOV        EDX,EAX
        0010169e 89 d0           MOV        EAX,EDX
        001016a0 c1 f8 1f        SAR        EAX,0x1f
        001016a3 c1 e8 1f        SHR        EAX,0x1f
        001016a6 01 c2           ADD        EDX,EAX
        001016a8 83 e2 01        AND        EDX,0x1
        001016ab 29 c2           SUB        EDX,EAX
        001016ad 89 55 b4        MOV        dword ptr [RBP + local_54],EDX
        001016b0 8b 45 b4        MOV        EAX,dword ptr [RBP + local_54]
        001016b3 48 98           CDQE
        001016b5 48 8b 44        MOV        RAX,qword ptr [RBP + RAX*0x8 + -0x30]
                 c5 d0
        001016ba 48 89 c6        MOV        RSI,RAX
        001016bd 48 8d 05        LEA        RAX,[s_[!]_Warning!_%s_turn_ahead:_001036b6]     = "\n[!] Warning! %s turn ahead: "
                 f2 1f 00 00
        001016c4 48 89 c7        MOV        RDI=>s_[!]_Warning!_%s_turn_ahead:_001036b6,RAX  = "\n[!] Warning! %s turn ahead: "
        001016c7 b8 00 00        MOV        EAX,0x0
                 00 00
        001016cc e8 4f fa        CALL       <EXTERNAL>::printf                               int printf(char * __format, ...)
                 ff ff
        001016d1 48 8d 45 e3     LEA        RAX=>local_25,[RBP + -0x1d]
        001016d5 ba 02 00        MOV        EDX,0x2
                 00 00
        001016da 48 89 c6        MOV        RSI,RAX
        001016dd bf 00 00        MOV        EDI,0x0
                 00 00
        001016e2 e8 c9 fa        CALL       <EXTERNAL>::read                                 ssize_t read(int __fd, void * __
                 ff ff
        001016e7 8b 45 b4        MOV        EAX,dword ptr [RBP + local_54]
        001016ea 48 98           CDQE
        001016ec 48 8b 44        MOV        RAX,qword ptr [RBP + RAX*0x8 + -0x30]
                 c5 d0
        001016f1 0f b6 55 e3     MOVZX      EDX,byte ptr [RBP + local_25]
        001016f5 0f b6 00        MOVZX      EAX,byte ptr [RAX]
        001016f8 0f b6 d2        MOVZX      EDX,DL
        001016fb 0f b6 c0        MOVZX      EAX,AL
        001016fe 29 c2           SUB        EDX,EAX
        00101700 85 d2           TEST       EDX,EDX
        00101702 75 2f           JNZ        LAB_00101733
        00101704 48 8d 05        LEA        RAX,[DAT_00102008]                               = 1Bh
                 fd 08 00 00
        0010170b 48 89 c2        MOV        RDX=>DAT_00102008,RAX                            = 1Bh
        0010170e 48 8d 05        LEA        RAX,[DAT_001036d4]                               = 1Bh
                 bf 1f 00 00
        00101715 48 89 c6        MOV        RSI=>DAT_001036d4,RAX                            = 1Bh
        00101718 48 8d 05        LEA        RAX,[s_%s[+]_Nice!_%s_001036dc]                  = "\n%s[+] Nice!\n%s"
                 bd 1f 00 00
        0010171f 48 89 c7        MOV        RDI=>s_%s[+]_Nice!_%s_001036dc,RAX               = "\n%s[+] Nice!\n%s"
        00101722 b8 00 00        MOV        EAX,0x0
                 00 00
        00101727 e8 f4 f9        CALL       <EXTERNAL>::printf                               int printf(char * __format, ...)
                 ff ff
        0010172c 48 83 45        ADD        qword ptr [RBP + local_50],0x1
                 b8 01
        00101731 eb 23           JMP        LAB_00101756
                             LAB_00101733                                    XREF[1]:     00101702(j)  
        00101733 bf 0a 00        MOV        EDI,0xa
                 00 00
        00101738 e8 63 fa        CALL       <EXTERNAL>::putchar                              int putchar(int __c)
                 ff ff
        0010173d 48 8d 05        LEA        RAX,[s_WE_CRASHED_AND_LOST_THE_RACE!_001036f0]   = "WE CRASHED AND LOST THE RACE!
                 ac 1f 00 00
        00101744 48 89 c7        MOV        RDI=>s_WE_CRASHED_AND_LOST_THE_RACE!_001036f0,   = "WE CRASHED AND LOST THE RACE!
        00101747 e8 7d fb        CALL       error                                            undefined error(char * param_1)
                 ff ff
        0010174c bf 01 00        MOV        EDI,0x1
                 00 00
        00101751 e8 2a fa        CALL       <EXTERNAL>::exit                                 void exit(int __status)
                 ff ff
                             -- Flow Override: CALL_RETURN (CALL_TERMINATOR)
                             LAB_00101756                                    XREF[2]:     0010167b(j), 00101731(j)  
        00101756 48 83 7d        CMP        qword ptr [RBP + local_50],0x6
                 b8 06
        0010175b 0f 86 1f        JBE        LAB_00101680
                 ff ff ff
        00101761 48 8d 05        LEA        RAX,[DAT_0010370f]                               = 1Bh
                 a7 1f 00 00
        00101768 48 89 c6        MOV        RSI=>DAT_0010370f,RAX                            = 1Bh
        0010176b 48 8d 05        LEA        RAX,[s_[!]_You_are_second!_Do_you_want_t_00103   = "\n[!] You are second! Do you 
                 a6 1f 00 00
        00101772 48 89 c7        MOV        RDI=>s_[!]_You_are_second!_Do_you_want_t_00103   = "\n[!] You are second! Do you 
        00101775 b8 00 00        MOV        EAX,0x0
                 00 00
        0010177a e8 a1 f9        CALL       <EXTERNAL>::printf                               int printf(char * __format, ...)
                 ff ff
        0010177f 48 8d 45 e5     LEA        RAX=>local_23,[RBP + -0x1b]
        00101783 ba 02 00        MOV        EDX,0x2
                 00 00
        00101788 48 89 c6        MOV        RSI,RAX
        0010178b bf 00 00        MOV        EDI,0x0
                 00 00
        00101790 e8 1b fa        CALL       <EXTERNAL>::read                                 ssize_t read(int __fd, void * __
                 ff ff
        00101795 48 89 e0        MOV        RAX,RSP
        00101798 48 89 c3        MOV        RBX,RAX
        0010179b c7 45 b0        MOV        dword ptr [RBP + local_58],0x10
                 10 00 00 00
        001017a2 8b 4d b0        MOV        ECX,dword ptr [RBP + local_58]
        001017a5 48 63 c1        MOVSXD     RAX,ECX
        001017a8 48 83 e8 01     SUB        RAX,0x1
        001017ac 48 89 45 c0     MOV        qword ptr [RBP + local_48],RAX
        001017b0 48 63 c1        MOVSXD     RAX,ECX
        001017b3 ba 10 00        MOV        EDX,0x10
                 00 00
        001017b8 48 83 ea 01     SUB        RDX,0x1
        001017bc 48 01 d0        ADD        RAX,RDX
        001017bf be 10 00        MOV        ESI,0x10
                 00 00
        001017c4 ba 00 00        MOV        EDX,0x0
                 00 00
        001017c9 48 f7 f6        DIV        RSI
        001017cc 48 6b c0 10     IMUL       RAX,RAX,0x10
        001017d0 48 89 c6        MOV        RSI,RAX
        001017d3 48 81 e6        AND        RSI,-0x1000
                 00 f0 ff ff
        001017da 48 89 e2        MOV        RDX,RSP
        001017dd 48 29 f2        SUB        RDX,RSI
                             LAB_001017e0                                    XREF[1]:     001017f5(j)  
        001017e0 48 39 d4        CMP        RSP,RDX
        001017e3 74 12           JZ         LAB_001017f7
        001017e5 48 81 ec        SUB        RSP,0x1000
                 00 10 00 00
        001017ec 48 83 8c        OR         qword ptr [RSP + local_60],0x0
                 24 f8 0f 
                 00 00 00
        001017f5 eb e9           JMP        LAB_001017e0
                             LAB_001017f7                                    XREF[1]:     001017e3(j)  
        001017f7 48 89 c2        MOV        RDX,RAX
        001017fa 81 e2 ff        AND        EDX,0xfff
                 0f 00 00
        00101800 48 29 d4        SUB        RSP,RDX
        00101803 48 89 c2        MOV        RDX,RAX
        00101806 81 e2 ff        AND        EDX,0xfff
                 0f 00 00
        0010180c 48 85 d2        TEST       RDX,RDX
        0010180f 74 10           JZ         LAB_00101821
        00101811 25 ff 0f        AND        EAX,0xfff
                 00 00
        00101816 48 83 e8 08     SUB        RAX,0x8
        0010181a 48 01 e0        ADD        RAX,RSP
        0010181d 48 83 08 00     OR         qword ptr [RAX]=>local_60,0x0
                             LAB_00101821                                    XREF[1]:     0010180f(j)  
        00101821 48 89 e0        MOV        RAX,RSP
        00101824 48 83 c0 00     ADD        RAX,0x0
        00101828 48 89 45 c8     MOV        qword ptr [RBP + local_40],RAX
        0010182c 48 8b 45 c8     MOV        RAX,qword ptr [RBP + local_40]
        00101830 48 63 d1        MOVSXD     RDX,ECX
        00101833 48 8d 4a ff     LEA        RCX,[RDX + -0x1]
        00101837 c6 00 00        MOV        byte ptr [RAX]=>local_68,0x0
        0010183a 48 8d 50 01     LEA        RDX=>local_67,[RAX + 0x1]
        0010183e 48 8d 41 ff     LEA        RAX,[RCX + -0x1]
        00101842 eb 0b           JMP        LAB_0010184f
                             LAB_00101844                                    XREF[1]:     00101852(j)  
        00101844 c6 02 00        MOV        byte ptr [RDX]=>local_67,0x0
        00101847 48 83 e8 01     SUB        RAX,0x1
        0010184b 48 83 c2 01     ADD        RDX,0x1
                             LAB_0010184f                                    XREF[1]:     00101842(j)  
        0010184f 48 85 c0        TEST       RAX,RAX
        00101852 79 f0           JNS        LAB_00101844
        00101854 48 8d 05        LEA        RAX,[DAT_001036d4]                               = 1Bh
                 79 1e 00 00
        0010185b 48 89 c6        MOV        RSI=>DAT_001036d4,RAX                            = 1Bh
        0010185e 48 8d 05        LEA        RAX,[s_%s[+]_BOOM!_You_finished_1st!!!_00103760] = "\n%s[+] BOOM! You finished 1s
                 fb 1e 00 00
        00101865 48 89 c7        MOV        RDI=>s_%s[+]_BOOM!_You_finished_1st!!!_0010376   = "\n%s[+] BOOM! You finished 1s
        00101868 b8 00 00        MOV        EAX,0x0
                 00 00
        0010186d e8 ae f8        CALL       <EXTERNAL>::printf                               int printf(char * __format, ...)
                 ff ff
        00101872 48 8d 05        LEA        RAX,[s_[*]_Please_tell_us_a_few_things_a_00103   = "[*] Please tell us a few thin
                 0f 1f 00 00
        00101879 48 89 c6        MOV        RSI=>s_[*]_Please_tell_us_a_few_things_a_00103   = "[*] Please tell us a few thin
        0010187c 48 8d 05        LEA        RAX,[std::cout]
                 fd 37 00 00
        00101883 48 89 c7        MOV        RDI=>std::cout,RAX
        00101886 e8 d5 f8        CALL       <EXTERNAL>::std::operator<<                      ostream * operator<<(ostream * p
                 ff ff
        0010188b 48 8b 45 c8     MOV        RAX,qword ptr [RBP + local_40]
        0010188f ba 88 00        MOV        EDX,0x88
                 00 00
        00101894 48 89 c6        MOV        RSI,RAX
        00101897 bf 00 00        MOV        EDI,0x0
                 00 00
        0010189c e8 0f f9        CALL       <EXTERNAL>::read                                 ssize_t read(int __fd, void * __
                 ff ff
        001018a1 48 89 dc        MOV        RSP,RBX
        001018a4 90              NOP
        001018a5 48 8b 45 e8     MOV        RAX,qword ptr [RBP + local_20]
        001018a9 64 48 2b        SUB        RAX,qword ptr FS:[0x28]
                 04 25 28 
                 00 00 00
        001018b2 74 05           JZ         LAB_001018b9
        001018b4 e8 b7 f8        CALL       <EXTERNAL>::__stack_chk_fail                     undefined __stack_chk_fail()
                 ff ff
                             -- Flow Override: CALL_RETURN (CALL_TERMINATOR)
                             LAB_001018b9                                    XREF[1]:     001018b2(j)  
        001018b9 48 8b 5d f8     MOV        RBX,qword ptr [RBP + local_10]
        001018bd c9              LEAVE
        001018be c3              RET
                             **************************************************************
                             * power_up()                                                 *
                             **************************************************************
                             undefined power_up(void)
             undefined         <UNASSIGNED>   <RETURN>
             undefined8        Stack[-0x10]:8 local_10                                XREF[2]:     001018d4(W), 
                                                                                                   001019d6(R)  
                             _Z8power_upv                                    XREF[4]:     Entry Point(*), main:00101a0c(c), 
                             power_up                                                     001038b4, 00103a84(*)  
        001018bf f3 0f 1e fa     ENDBR64
        001018c3 55              PUSH       RBP
        001018c4 48 89 e5        MOV        RBP,RSP
        001018c7 48 83 ec 10     SUB        RSP,0x10
        001018cb 64 48 8b        MOV        RAX,qword ptr FS:[0x28]
                 04 25 28 
                 00 00 00
        001018d4 48 89 45 f8     MOV        qword ptr [RBP + local_10],RAX
        001018d8 31 c0           XOR        EAX,EAX
        001018da 48 8d 05        LEA        RAX,[s_[!]_Choose_power_up:_001037bd]            = "[!] Choose power up: \n\n"
                 dc 1e 00 00
        001018e1 48 89 c6        MOV        RSI=>s_[!]_Choose_power_up:_001037bd,RAX         = "[!] Choose power up: \n\n"
        001018e4 48 8d 05        LEA        RAX,[std::cout]
                 95 37 00 00
        001018eb 48 89 c7        MOV        RDI=>std::cout,RAX
        001018ee e8 6d f8        CALL       <EXTERNAL>::std::operator<<                      ostream * operator<<(ostream * p
                 ff ff
        001018f3 48 8d 05        LEA        RAX,[s_1._Banana_peel_001037d5]                  = "1. Banana peel\n"
                 db 1e 00 00
        001018fa 48 89 c6        MOV        RSI=>s_1._Banana_peel_001037d5,RAX               = "1. Banana peel\n"
        001018fd 48 8d 05        LEA        RAX,[std::cout]
                 7c 37 00 00
        00101904 48 89 c7        MOV        RDI=>std::cout,RAX
        00101907 e8 54 f8        CALL       <EXTERNAL>::std::operator<<                      ostream * operator<<(ostream * p
                 ff ff
        0010190c 48 8d 05        LEA        RAX,[s_2._Rocket_001037e5]                       = "2. Rocket\n"
                 d2 1e 00 00
        00101913 48 89 c6        MOV        RSI=>s_2._Rocket_001037e5,RAX                    = "2. Rocket\n"
        00101916 48 8d 05        LEA        RAX,[std::cout]
                 63 37 00 00
        0010191d 48 89 c7        MOV        RDI=>std::cout,RAX
        00101920 e8 3b f8        CALL       <EXTERNAL>::std::operator<<                      ostream * operator<<(ostream * p
                 ff ff
        00101925 48 8d 05        LEA        RAX,[s_3._Mushroom_001037f0]                     = "3. Mushroom\n"
                 c4 1e 00 00
        0010192c 48 89 c6        MOV        RSI=>s_3._Mushroom_001037f0,RAX                  = "3. Mushroom\n"
        0010192f 48 8d 05        LEA        RAX,[std::cout]
                 4a 37 00 00
        00101936 48 89 c7        MOV        RDI=>std::cout,RAX
        00101939 e8 22 f8        CALL       <EXTERNAL>::std::operator<<                      ostream * operator<<(ostream * p
                 ff ff
        0010193e 48 8d 05        LEA        RAX,[s_4._Other_001037fd]                        = "4. Other\n\n"
                 b8 1e 00 00
        00101945 48 89 c6        MOV        RSI=>s_4._Other_001037fd,RAX                     = "4. Other\n\n"
        00101948 48 8d 05        LEA        RAX,[std::cout]
                 31 37 00 00
        0010194f 48 89 c7        MOV        RDI=>std::cout,RAX
        00101952 e8 09 f8        CALL       <EXTERNAL>::std::operator<<                      ostream * operator<<(ostream * p
                 ff ff
        00101957 48 8d 05        LEA        RAX,[DAT_00103808]                               = 3Eh    >
                 aa 1e 00 00
        0010195e 48 89 c6        MOV        RSI=>DAT_00103808,RAX                            = 3Eh    >
        00101961 48 8d 05        LEA        RAX,[std::cout]
                 18 37 00 00
        00101968 48 89 c7        MOV        RDI=>std::cout,RAX
        0010196b e8 f0 f7        CALL       <EXTERNAL>::std::operator<<                      ostream * operator<<(ostream * p
                 ff ff
        00101970 e8 1d fa        CALL       read_num                                         undefined read_num(void)
                 ff ff
        00101975 48 83 f8 04     CMP        RAX,0x4
        00101979 74 35           JZ         LAB_001019b0
        0010197b 48 83 f8 04     CMP        RAX,0x4
        0010197f 77 36           JA         LAB_001019b7
        00101981 48 83 f8 03     CMP        RAX,0x3
        00101985 74 22           JZ         LAB_001019a9
        00101987 48 83 f8 03     CMP        RAX,0x3
        0010198b 77 2a           JA         LAB_001019b7
        0010198d 48 83 f8 01     CMP        RAX,0x1
        00101991 74 08           JZ         LAB_0010199b
        00101993 48 83 f8 02     CMP        RAX,0x2
        00101997 74 09           JZ         LAB_001019a2
        00101999 eb 1c           JMP        LAB_001019b7
                             LAB_0010199b                                    XREF[1]:     00101991(j)  
        0010199b e8 6f fa        CALL       banana                                           undefined banana(void)
                 ff ff
        001019a0 eb 2e           JMP        LAB_001019d0
                             LAB_001019a2                                    XREF[1]:     00101997(j)  
        001019a2 e8 03 fb        CALL       rocket                                           undefined rocket(void)
                 ff ff
        001019a7 eb 27           JMP        LAB_001019d0
                             LAB_001019a9                                    XREF[1]:     00101985(j)  
        001019a9 e8 56 fb        CALL       mushroom                                         undefined mushroom(void)
                 ff ff
        001019ae eb 20           JMP        LAB_001019d0
                             LAB_001019b0                                    XREF[1]:     00101979(j)  
        001019b0 e8 a9 fb        CALL       custom                                           undefined custom(void)
                 ff ff
        001019b5 eb 19           JMP        LAB_001019d0
                             LAB_001019b7                                    XREF[3]:     0010197f(j), 0010198b(j), 
                                                                                          00101999(j)  
        001019b7 48 8d 05        LEA        RAX,[s_Invalid_Power_Up!_Are_you_trying_001038   = "Invalid Power Up! Are you try
                 52 1e 00 00
        001019be 48 89 c7        MOV        RDI=>s_Invalid_Power_Up!_Are_you_trying_001038   = "Invalid Power Up! Are you try
        001019c1 e8 03 f9        CALL       error                                            undefined error(char * param_1)
                 ff ff
        001019c6 bf 01 00        MOV        EDI,0x1
                 00 00
        001019cb e8 b0 f7        CALL       <EXTERNAL>::exit                                 void exit(int __status)
                 ff ff
                             -- Flow Override: CALL_RETURN (CALL_TERMINATOR)
                             LAB_001019d0                                    XREF[4]:     001019a0(j), 001019a7(j), 
                                                                                          001019ae(j), 001019b5(j)  
        001019d0 e8 44 fc        CALL       race                                             undefined race(void)
                 ff ff
        001019d5 90              NOP
        001019d6 48 8b 45 f8     MOV        RAX,qword ptr [RBP + local_10]
        001019da 64 48 2b        SUB        RAX,qword ptr FS:[0x28]
                 04 25 28 
                 00 00 00
        001019e3 74 05           JZ         LAB_001019ea
        001019e5 e8 86 f7        CALL       <EXTERNAL>::__stack_chk_fail                     undefined __stack_chk_fail()
                 ff ff
                             -- Flow Override: CALL_RETURN (CALL_TERMINATOR)
                             LAB_001019ea                                    XREF[1]:     001019e3(j)  
        001019ea c9              LEAVE
        001019eb c3              RET
                             **************************************************************
                             *                          FUNCTION                          *
                             **************************************************************
                             undefined main()
             undefined         <UNASSIGNED>   <RETURN>
             undefined8        Stack[-0x10]:8 local_10                                XREF[2]:     00101a01(W), 
                                                                                                   00101a16(R)  
                             main                                            XREF[4]:     Entry Point(*), 
                                                                                          _start:001011f8(*), 001038bc, 
                                                                                          00103aa4(*)  
        001019ec f3 0f 1e fa     ENDBR64
        001019f0 55              PUSH       RBP
        001019f1 48 89 e5        MOV        RBP,RSP
        001019f4 48 83 ec 10     SUB        RSP,0x10
        001019f8 64 48 8b        MOV        RAX,qword ptr FS:[0x28]
                 04 25 28 
                 00 00 00
        00101a01 48 89 45 f8     MOV        qword ptr [RBP + local_10],RAX
        00101a05 31 c0           XOR        EAX,EAX
        00101a07 e8 5d fa        CALL       banner                                           undefined banner(void)
                 ff ff
        00101a0c e8 ae fe        CALL       power_up                                         undefined power_up(void)
                 ff ff
        00101a11 b8 00 00        MOV        EAX,0x0
                 00 00
        00101a16 48 8b 55 f8     MOV        RDX,qword ptr [RBP + local_10]
        00101a1a 64 48 2b        SUB        RDX,qword ptr FS:[0x28]
                 14 25 28 
                 00 00 00
        00101a23 74 05           JZ         LAB_00101a2a
        00101a25 e8 46 f7        CALL       <EXTERNAL>::__stack_chk_fail                     undefined __stack_chk_fail()
                 ff ff
                             -- Flow Override: CALL_RETURN (CALL_TERMINATOR)
                             LAB_00101a2a                                    XREF[1]:     00101a23(j)  
        00101a2a c9              LEAVE
        00101a2b c3              RET
                             **************************************************************
                             * setup()                                                    *
                             **************************************************************
                             undefined setup(void)
             undefined         <UNASSIGNED>   <RETURN>
             undefined8        Stack[-0x10]:8 local_10                                XREF[2]:     00101a41(W), 
                                                                                                   00101a93(R)  
                             _Z5setupv                                       XREF[4]:     Entry Point(*), 001038c4, 
                             setup                                                        00103ac4(*), 00104d38(*)  
        00101a2c f3 0f 1e fa     ENDBR64
        00101a30 55              PUSH       RBP
        00101a31 48 89 e5        MOV        RBP,RSP
        00101a34 48 83 ec 10     SUB        RSP,0x10
        00101a38 64 48 8b        MOV        RAX,qword ptr FS:[0x28]
                 04 25 28 
                 00 00 00
        00101a41 48 89 45 f8     MOV        qword ptr [RBP + local_10],RAX
        00101a45 31 c0           XOR        EAX,EAX
        00101a47 e8 e2 f8        CALL       cls                                              undefined cls(void)
                 ff ff
        00101a4c 48 8b 05        MOV        RAX,qword ptr [stdin]
                 fd 35 00 00
        00101a53 b9 00 00        MOV        ECX,0x0
                 00 00
        00101a58 ba 02 00        MOV        EDX,0x2
                 00 00
        00101a5d be 00 00        MOV        ESI,0x0
                 00 00
        00101a62 48 89 c7        MOV        RDI,RAX
        00101a65 e8 a6 f6        CALL       <EXTERNAL>::setvbuf                              int setvbuf(FILE * __stream, cha
                 ff ff
        00101a6a 48 8b 05        MOV        RAX,qword ptr [stdout]
                 cf 35 00 00
        00101a71 b9 00 00        MOV        ECX,0x0
                 00 00
        00101a76 ba 02 00        MOV        EDX,0x2
                 00 00
        00101a7b be 00 00        MOV        ESI,0x0
                 00 00
        00101a80 48 89 c7        MOV        RDI,RAX
        00101a83 e8 88 f6        CALL       <EXTERNAL>::setvbuf                              int setvbuf(FILE * __stream, cha
                 ff ff
        00101a88 bf 12 13        MOV        EDI,0x1312
                 00 00
        00101a8d e8 3e f7        CALL       <EXTERNAL>::alarm                                uint alarm(uint __seconds)
                 ff ff
        00101a92 90              NOP
        00101a93 48 8b 45 f8     MOV        RAX,qword ptr [RBP + local_10]
        00101a97 64 48 2b        SUB        RAX,qword ptr FS:[0x28]
                 04 25 28 
                 00 00 00
        00101aa0 74 05           JZ         LAB_00101aa7
        00101aa2 e8 c9 f6        CALL       <EXTERNAL>::__stack_chk_fail                     undefined __stack_chk_fail()
                 ff ff
                             -- Flow Override: CALL_RETURN (CALL_TERMINATOR)
                             LAB_00101aa7                                    XREF[1]:     00101aa0(j)  
        00101aa7 c9              LEAVE
        00101aa8 c3              RET
                             //
                             // .fini 
                             // SHT_PROGBITS  [0x1aac - 0x1ab8]
                             // ram:00101aac-ram:00101ab8
                             //
                             **************************************************************
                             *                          FUNCTION                          *
                             **************************************************************
                             undefined _fini()
             undefined         <UNASSIGNED>   <RETURN>
                             __DT_FINI                                       XREF[3]:     Entry Point(*), 00104d90(*), 
                             _fini                                                        _elfSectionHeaders::00000450(*)  
        00101aac f3 0f 1e fa     ENDBR64
        00101ab0 48 83 ec 08     SUB        RSP,0x8
        00101ab4 48 83 c4 08     ADD        RSP,0x8
        00101ab8 c3              RET
                             //
                             // .rodata 
                             // SHT_PROGBITS  [0x2000 - 0x383f]
                             // ram:00102000-ram:0010383f
                             //
                             _IO_stdin_used                                  XREF[3]:     Entry Point(*), 00100130(*), 
                                                                                          _elfSectionHeaders::00000490(*)  
        00102000 01 00 02 00     undefined4 00020001h
        00102004 00              ??         00h
        00102005 00              ??         00h
        00102006 00              ??         00h
        00102007 00              ??         00h
                             DAT_00102008                                    XREF[6]:     error:001012ec(*), 
                                                                                          error:001012f3(*), 
                                                                                          race:00101655(*), 
                                                                                          race:0010165c(*), 
                                                                                          race:00101704(*), 
                                                                                          race:0010170b(*)  
        00102008 1b              ??         1Bh
        00102009 5b              ??         5Bh    [
        0010200a 31              ??         31h    1
        0010200b 3b              ??         3Bh    ;
        0010200c 33              ??         33h    3
        0010200d 34              ??         34h    4
        0010200e 6d              ??         6Dh    m
        0010200f 00              ??         00h
                             DAT_00102010                                    XREF[4]:     error:001012f9(*), 
                                                                                          error:00101300(*), 
                                                                                          mushroom:00101529(*), 
                                                                                          mushroom:00101530(*)  
        00102010 1b              ??         1Bh
        00102011 5b              ??         5Bh    [
        00102012 31              ??         31h    1
        00102013 3b              ??         3Bh    ;
        00102014 33              ??         33h    3
        00102015 31              ??         31h    1
        00102016 6d              ??         6Dh    m
        00102017 00              ??         00h
                             s_%s[-]_%s%s_00102018                           XREF[2]:     error:00101303(*), 
                                                                                          error:0010130a(*)  
        00102018 0a 25 73        ds         "\n%s[-] %s%s\n"
                 5b 2d 5d 
                 20 25 73 
                             DAT_00102025                                    XREF[2]:     cls:00101349(*), cls:00101350(*)  
        00102025 1b              ??         1Bh
        00102026 5b              ??         5Bh    [
        00102027 32              ??         32h    2
        00102028 4a              ??         4Ah    J
        00102029 00              ??         00h
                             DAT_0010202a                                    XREF[2]:     cls:00101367(*), cls:0010136e(*)  
        0010202a 1b              ??         1Bh
        0010202b 5b              ??         5Bh    [
        0010202c 25              ??         25h    %
        0010202d 64              ??         64h    d
        0010202e 3b              ??         3Bh    ;
        0010202f 25              ??         25h    %
        00102030 64              ??         64h    d
        00102031 48              ??         48h    H
        00102032 00              ??         00h
                             DAT_00102033                                    XREF[6]:     banana:0010142a(*), 
                                                                                          banana:00101431(*), 
                                                                                          rocket:001014c5(*), 
                                                                                          rocket:001014cc(*), 
                                                                                          mushroom:0010151f(*), 
                                                                                          mushroom:00101526(*)  
        00102033 1b              ??         1Bh
        00102034 5b              ??         5Bh    [
        00102035 30              ??         30h    0
        00102036 6d              ??         6Dh    m
        00102037 00              ??         00h
                             DAT_00102038                                    XREF[6]:     banana:00101434(*), 
                                                                                          banana:0010143b(*), 
                                                                                          custom:00101590(*), 
                                                                                          custom:00101597(*), 
                                                                                          custom:001015d3(*), 
                                                                                          custom:001015da(*)  
        00102038 1b              ??         1Bh
        00102039 5b              ??         5Bh    [
        0010203a 31              ??         31h    1
        0010203b 3b              ??         3Bh    ;
        0010203c 33              ??         33h    3
        0010203d 33              ??         33h    3
        0010203e 6d              ??         6Dh    m
        0010203f 00              ??         00h
                             DAT_00102040                                    XREF[2]:     banana:0010143e(*), 
                                                                                          banana:00101445(*)  
        00102040 25              ??         25h    %
        00102041 73              ??         73h    s
        00102042 0a              ??         0Ah
        00102043 5b              ??         5Bh    [
        00102044 21              ??         21h    !
        00102045 5d              ??         5Dh    ]
        00102046 20              ??         20h     
        00102047 59              ??         59h    Y
        00102048 6f              ??         6Fh    o
        00102049 75              ??         75h    u
        0010204a 20              ??         20h     
        0010204b 63              ??         63h    c
        0010204c 68              ??         68h    h
        0010204d 6f              ??         6Fh    o
        0010204e 73              ??         73h    s
        0010204f 65              ??         65h    e
        00102050 3a              ??         3Ah    :
        00102051 20              ??         20h     
        00102052 0a              ??         0Ah
        00102053 20              ??         20h     
        00102054 20              ??         20h     
        00102055 20              ??         20h     
        00102056 20              ??         20h     
        00102057 20              ??         20h     
        00102058 20              ??         20h     
        00102059 20              ??         20h     
        0010205a 20              ??         20h     
        0010205b 20              ??         20h     
        0010205c 20              ??         20h     
        0010205d 20              ??         20h     
        0010205e 20              ??         20h     
        0010205f 20              ??         20h     
        00102060 20              ??         20h     
        00102061 20              ??         20h     
        00102062 20              ??         20h     
        00102063 20              ??         20h     
        00102064 e2              ??         E2h
        00102065 ac              ??         ACh
        00102066 9b              ??         9Bh
        00102067 0a              ??         0Ah
        00102068 20              ??         20h     
        00102069 20              ??         20h     
        0010206a 20              ??         20h     
        0010206b 20              ??         20h     
        0010206c 20              ??         20h     
        0010206d 20              ??         20h     
        0010206e 20              ??         20h     
        0010206f 20              ??         20h     
        00102070 20              ??         20h     
        00102071 20              ??         20h     
        00102072 20              ??         20h     
        00102073 20              ??         20h     
        00102074 20              ??         20h     
        00102075 20              ??         20h     
        00102076 20              ??         20h     
        00102077 e2              ??         E2h
        00102078 ac              ??         ACh
        00102079 9b              ??         9Bh
        0010207a e2              ??         E2h
        0010207b ac              ??         ACh
        0010207c 9c              ??         9Ch
        0010207d e2              ??         E2h
        0010207e ac              ??         ACh
        0010207f 9b              ??         9Bh
        00102080 0a              ??         0Ah
        00102081 20              ??         20h     
        00102082 20              ??         20h     
        00102083 20              ??         20h     
        00102084 20              ??         20h     
        00102085 20              ??         20h     
        00102086 20              ??         20h     
        00102087 20              ??         20h     
        00102088 20              ??         20h     
        00102089 20              ??         20h     
        0010208a 20              ??         20h     
        0010208b 20              ??         20h     
        0010208c 20              ??         20h     
        0010208d 20              ??         20h     
        0010208e e2              ??         E2h
        0010208f ac              ??         ACh
        00102090 9b              ??         9Bh
        00102091 e2              ??         E2h
        00102092 ac              ??         ACh
        00102093 9c              ??         9Ch
        00102094 f0              ??         F0h
        00102095 9f              ??         9Fh
        00102096 9f              ??         9Fh
        00102097 a8              ??         A8h
        00102098 f0              ??         F0h
        00102099 9f              ??         9Fh
        0010209a 9f              ??         9Fh
        0010209b a8              ??         A8h
        0010209c e2              ??         E2h
        0010209d ac              ??         ACh
        0010209e 9b              ??         9Bh
        0010209f 0a              ??         0Ah
        001020a0 20              ??         20h     
        001020a1 20              ??         20h     
        001020a2 20              ??         20h     
        001020a3 20              ??         20h     
        001020a4 20              ??         20h     
        001020a5 20              ??         20h     
        001020a6 20              ??         20h     
        001020a7 20              ??         20h     
        001020a8 20              ??         20h     
        001020a9 20              ??         20h     
        001020aa 20              ??         20h     
        001020ab e2              ??         E2h
        001020ac ac              ??         ACh
        001020ad 9b              ??         9Bh
        001020ae e2              ??         E2h
        001020af ac              ??         ACh
        001020b0 9c              ??         9Ch
        001020b1 f0              ??         F0h
        001020b2 9f              ??         9Fh
        001020b3 9f              ??         9Fh
        001020b4 a8              ??         A8h
        001020b5 f0              ??         F0h
        001020b6 9f              ??         9Fh
        001020b7 9f              ??         9Fh
        001020b8 a8              ??         A8h
        001020b9 f0              ??         F0h
        001020ba 9f              ??         9Fh
        001020bb 9f              ??         9Fh
        001020bc a8              ??         A8h
        001020bd f0              ??         F0h
        001020be 9f              ??         9Fh
        001020bf 9f              ??         9Fh
        001020c0 a8              ??         A8h
        001020c1 e2              ??         E2h
        001020c2 ac              ??         ACh
        001020c3 9b              ??         9Bh
        001020c4 0a              ??         0Ah
        001020c5 20              ??         20h     
        001020c6 20              ??         20h     
        001020c7 20              ??         20h     
        001020c8 20              ??         20h     
        001020c9 20              ??         20h     
        001020ca 20              ??         20h     
        001020cb 20              ??         20h     
        001020cc 20              ??         20h     
        001020cd 20              ??         20h     
        001020ce 20              ??         20h     
        001020cf 20              ??         20h     
        001020d0 e2              ??         E2h
        001020d1 ac              ??         ACh
        001020d2 9b              ??         9Bh
        001020d3 e2              ??         E2h
        001020d4 ac              ??         ACh
        001020d5 9c              ??         9Ch
        001020d6 f0              ??         F0h
        001020d7 9f              ??         9Fh
        001020d8 9f              ??         9Fh
        001020d9 a8              ??         A8h
        001020da f0              ??         F0h
        001020db 9f              ??         9Fh
        001020dc 9f              ??         9Fh
        001020dd a8              ??         A8h
        001020de f0              ??         F0h
        001020df 9f              ??         9Fh
        001020e0 9f              ??         9Fh
        001020e1 a8              ??         A8h
        001020e2 f0              ??         F0h
        001020e3 9f              ??         9Fh
        001020e4 9f              ??         9Fh
        001020e5 a8              ??         A8h
        001020e6 e2              ??         E2h
        001020e7 ac              ??         ACh
        001020e8 9b              ??         9Bh
        001020e9 0a              ??         0Ah
        001020ea 20              ??         20h     
        001020eb 20              ??         20h     
        001020ec 20              ??         20h     
        001020ed 20              ??         20h     
        001020ee 20              ??         20h     
        001020ef 20              ??         20h     
        001020f0 20              ??         20h     
        001020f1 20              ??         20h     
        001020f2 20              ??         20h     
        001020f3 20              ??         20h     
        001020f4 20              ??         20h     
        001020f5 e2              ??         E2h
        001020f6 ac              ??         ACh
        001020f7 9b              ??         9Bh
        001020f8 e2              ??         E2h
        001020f9 ac              ??         ACh
        001020fa 9c              ??         9Ch
        001020fb e2              ??         E2h
        001020fc ac              ??         ACh
        001020fd 9b              ??         9Bh
        001020fe f0              ??         F0h
        001020ff 9f              ??         9Fh
        00102100 9f              ??         9Fh
        00102101 a8              ??         A8h
        00102102 e2              ??         E2h
        00102103 ac              ??         ACh
        00102104 9b              ??         9Bh
        00102105 f0              ??         F0h
        00102106 9f              ??         9Fh
        00102107 9f              ??         9Fh
        00102108 a8              ??         A8h
        00102109 e2              ??         E2h
        0010210a ac              ??         ACh
        0010210b 9b              ??         9Bh
        0010210c 0a              ??         0Ah
        0010210d 20              ??         20h     
        0010210e 20              ??         20h     
        0010210f 20              ??         20h     
        00102110 20              ??         20h     
        00102111 20              ??         20h     
        00102112 20              ??         20h     
        00102113 20              ??         20h     
        00102114 20              ??         20h     
        00102115 20              ??         20h     
        00102116 20              ??         20h     
        00102117 20              ??         20h     
        00102118 e2              ??         E2h
        00102119 ac              ??         ACh
        0010211a 9b              ??         9Bh
        0010211b e2              ??         E2h
        0010211c ac              ??         ACh
        0010211d 9c              ??         9Ch
        0010211e e2              ??         E2h
        0010211f ac              ??         ACh
        00102120 9b              ??         9Bh
        00102121 f0              ??         F0h
        00102122 9f              ??         9Fh
        00102123 9f              ??         9Fh
        00102124 a8              ??         A8h
        00102125 e2              ??         E2h
        00102126 ac              ??         ACh
        00102127 9b              ??         9Bh
        00102128 f0              ??         F0h
        00102129 9f              ??         9Fh
        0010212a 9f              ??         9Fh
        0010212b a8              ??         A8h
        0010212c e2              ??         E2h
        0010212d ac              ??         ACh
        0010212e 9b              ??         9Bh
        0010212f 0a              ??         0Ah
        00102130 20              ??         20h     
        00102131 20              ??         20h     
        00102132 20              ??         20h     
        00102133 20              ??         20h     
        00102134 20              ??         20h     
        00102135 20              ??         20h     
        00102136 20              ??         20h     
        00102137 20              ??         20h     
        00102138 20              ??         20h     
        00102139 20              ??         20h     
        0010213a 20              ??         20h     
        0010213b e2              ??         E2h
        0010213c ac              ??         ACh
        0010213d 9b              ??         9Bh
        0010213e e2              ??         E2h
        0010213f ac              ??         ACh
        00102140 9c              ??         9Ch
        00102141 e2              ??         E2h
        00102142 ac              ??         ACh
        00102143 9b              ??         9Bh
        00102144 f0              ??         F0h
        00102145 9f              ??         9Fh
        00102146 9f              ??         9Fh
        00102147 a8              ??         A8h
        00102148 e2              ??         E2h
        00102149 ac              ??         ACh
        0010214a 9b              ??         9Bh
        0010214b f0              ??         F0h
        0010214c 9f              ??         9Fh
        0010214d 9f              ??         9Fh
        0010214e a8              ??         A8h
        0010214f e2              ??         E2h
        00102150 ac              ??         ACh
        00102151 9b              ??         9Bh
        00102152 0a              ??         0Ah
        00102153 20              ??         20h     
        00102154 20              ??         20h     
        00102155 20              ??         20h     
        00102156 20              ??         20h     
        00102157 20              ??         20h     
        00102158 20              ??         20h     
        00102159 20              ??         20h     
        0010215a 20              ??         20h     
        0010215b 20              ??         20h     
        0010215c 20              ??         20h     
        0010215d 20              ??         20h     
        0010215e e2              ??         E2h
        0010215f ac              ??         ACh
        00102160 9b              ??         9Bh
        00102161 e2              ??         E2h
        00102162 ac              ??         ACh
        00102163 9c              ??         9Ch
        00102164 f0              ??         F0h
        00102165 9f              ??         9Fh
        00102166 9f              ??         9Fh
        00102167 a8              ??         A8h
        00102168 f0              ??         F0h
        00102169 9f              ??         9Fh
        0010216a 9f              ??         9Fh
        0010216b a8              ??         A8h
        0010216c f0              ??         F0h
        0010216d 9f              ??         9Fh
        0010216e 9f              ??         9Fh
        0010216f a8              ??         A8h
        00102170 f0              ??         F0h
        00102171 9f              ??         9Fh
        00102172 9f              ??         9Fh
        00102173 a8              ??         A8h
        00102174 e2              ??         E2h
        00102175 ac              ??         ACh
        00102176 9b              ??         9Bh
        00102177 0a              ??         0Ah
        00102178 20              ??         20h     
        00102179 20              ??         20h     
        0010217a e2              ??         E2h
        0010217b ac              ??         ACh
        0010217c 9b              ??         9Bh
        0010217d e2              ??         E2h
        0010217e ac              ??         ACh
        0010217f 9c              ??         9Ch
        00102180 e2              ??         E2h
        00102181 ac              ??         ACh
        00102182 9c              ??         9Ch
        00102183 e2              ??         E2h
        00102184 ac              ??         ACh
        00102185 9b              ??         9Bh
        00102186 e2              ??         E2h
        00102187 ac              ??         ACh
        00102188 9b              ??         9Bh
        00102189 e2              ??         E2h
        0010218a ac              ??         ACh
        0010218b 9c              ??         9Ch
        0010218c f0              ??         F0h
        0010218d 9f              ??         9Fh
        0010218e 9f              ??         9Fh
        0010218f a8              ??         A8h
        00102190 f0              ??         F0h
        00102191 9f              ??         9Fh
        00102192 9f              ??         9Fh
        00102193 a8              ??         A8h
        00102194 f0              ??         F0h
        00102195 9f              ??         9Fh
        00102196 9f              ??         9Fh
        00102197 a8              ??         A8h
        00102198 f0              ??         F0h
        00102199 9f              ??         9Fh
        0010219a 9f              ??         9Fh
        0010219b a8              ??         A8h
        0010219c e2              ??         E2h
        0010219d ac              ??         ACh
        0010219e 9b              ??         9Bh
        0010219f e2              ??         E2h
        001021a0 ac              ??         ACh
        001021a1 9b              ??         9Bh
        001021a2 e2              ??         E2h
        001021a3 ac              ??         ACh
        001021a4 9c              ??         9Ch
        001021a5 e2              ??         E2h
        001021a6 ac              ??         ACh
        001021a7 9c              ??         9Ch
        001021a8 e2              ??         E2h
        001021a9 ac              ??         ACh
        001021aa 9b              ??         9Bh
        001021ab 0a              ??         0Ah
        001021ac e2              ??         E2h
        001021ad ac              ??         ACh
        001021ae 9b              ??         9Bh
        001021af f0              ??         F0h
        001021b0 9f              ??         9Fh
        001021b1 9f              ??         9Fh
        001021b2 a8              ??         A8h
        001021b3 e2              ??         E2h
        001021b4 ac              ??         ACh
        001021b5 9b              ??         9Bh
        001021b6 e2              ??         E2h
        001021b7 ac              ??         ACh
        001021b8 9b              ??         9Bh
        001021b9 e2              ??         E2h
        001021ba ac              ??         ACh
        001021bb 9b              ??         9Bh
        001021bc e2              ??         E2h
        001021bd ac              ??         ACh
        001021be 9c              ??         9Ch
        001021bf f0              ??         F0h
        001021c0 9f              ??         9Fh
        001021c1 9f              ??         9Fh
        001021c2 a8              ??         A8h
        001021c3 f0              ??         F0h
        001021c4 9f              ??         9Fh
        001021c5 9f              ??         9Fh
        001021c6 a8              ??         A8h
        001021c7 e2              ??         E2h
        001021c8 ac              ??         ACh
        001021c9 9b              ??         9Bh
        001021ca f0              ??         F0h
        001021cb 9f              ??         9Fh
        001021cc 9f              ??         9Fh
        001021cd a8              ??         A8h
        001021ce f0              ??         F0h
        001021cf 9f              ??         9Fh
        001021d0 9f              ??         9Fh
        001021d1 a8              ??         A8h
        001021d2 f0              ??         F0h
        001021d3 9f              ??         9Fh
        001021d4 9f              ??         9Fh
        001021d5 a8              ??         A8h
        001021d6 e2              ??         E2h
        001021d7 ac              ??         ACh
        001021d8 9b              ??         9Bh
        001021d9 e2              ??         E2h
        001021da ac              ??         ACh
        001021db 9b              ??         9Bh
        001021dc e2              ??         E2h
        001021dd ac              ??         ACh
        001021de 9b              ??         9Bh
        001021df f0              ??         F0h
        001021e0 9f              ??         9Fh
        001021e1 9f              ??         9Fh
        001021e2 a8              ??         A8h
        001021e3 e2              ??         E2h
        001021e4 ac              ??         ACh
        001021e5 9b              ??         9Bh
        001021e6 0a              ??         0Ah
        001021e7 e2              ??         E2h
        001021e8 ac              ??         ACh
        001021e9 9b              ??         9Bh
        001021ea f0              ??         F0h
        001021eb 9f              ??         9Fh
        001021ec 9f              ??         9Fh
        001021ed a8              ??         A8h
        001021ee f0              ??         F0h
        001021ef 9f              ??         9Fh
        001021f0 9f              ??         9Fh
        001021f1 a8              ??         A8h
        001021f2 f0              ??         F0h
        001021f3 9f              ??         9Fh
        001021f4 9f              ??         9Fh
        001021f5 a8              ??         A8h
        001021f6 f0              ??         F0h
        001021f7 9f              ??         9Fh
        001021f8 9f              ??         9Fh
        001021f9 a8              ??         A8h
        001021fa f0              ??         F0h
        001021fb 9f              ??         9Fh
        001021fc 9f              ??         9Fh
        001021fd a8              ??         A8h
        001021fe f0              ??         F0h
        001021ff 9f              ??         9Fh
        00102200 9f              ??         9Fh
        00102201 a8              ??         A8h
        00102202 f0              ??         F0h
        00102203 9f              ??         9Fh
        00102204 9f              ??         9Fh
        00102205 a8              ??         A8h
        00102206 e2              ??         E2h
        00102207 ac              ??         ACh
        00102208 9b              ??         9Bh
        00102209 f0              ??         F0h
        0010220a 9f              ??         9Fh
        0010220b 9f              ??         9Fh
        0010220c a8              ??         A8h
        0010220d f0              ??         F0h
        0010220e 9f              ??         9Fh
        0010220f 9f              ??         9Fh
        00102210 a8              ??         A8h
        00102211 f0              ??         F0h
        00102212 9f              ??         9Fh
        00102213 9f              ??         9Fh
        00102214 a8              ??         A8h
        00102215 f0              ??         F0h
        00102216 9f              ??         9Fh
        00102217 9f              ??         9Fh
        00102218 a8              ??         A8h
        00102219 f0              ??         F0h
        0010221a 9f              ??         9Fh
        0010221b 9f              ??         9Fh
        0010221c a8              ??         A8h
        0010221d f0              ??         F0h
        0010221e 9f              ??         9Fh
        0010221f 9f              ??         9Fh
        00102220 a8              ??         A8h
        00102221 f0              ??         F0h
        00102222 9f              ??         9Fh
        00102223 9f              ??         9Fh
        00102224 a8              ??         A8h
        00102225 e2              ??         E2h
        00102226 ac              ??         ACh
        00102227 9b              ??         9Bh
        00102228 0a              ??         0Ah
        00102229 20              ??         20h     
        0010222a 20              ??         20h     
        0010222b e2              ??         E2h
        0010222c ac              ??         ACh
        0010222d 9b              ??         9Bh
        0010222e f0              ??         F0h
        0010222f 9f              ??         9Fh
        00102230 9f              ??         9Fh
        00102231 a8              ??         A8h
        00102232 f0              ??         F0h
        00102233 9f              ??         9Fh
        00102234 9f              ??         9Fh
        00102235 a8              ??         A8h
        00102236 f0              ??         F0h
        00102237 9f              ??         9Fh
        00102238 9f              ??         9Fh
        00102239 a8              ??         A8h
        0010223a f0              ??         F0h
        0010223b 9f              ??         9Fh
        0010223c 9f              ??         9Fh
        0010223d a8              ??         A8h
        0010223e f0              ??         F0h
        0010223f 9f              ??         9Fh
        00102240 9f              ??         9Fh
        00102241 a8              ??         A8h
        00102242 e2              ??         E2h
        00102243 ac              ??         ACh
        00102244 9b              ??         9Bh
        00102245 e2              ??         E2h
        00102246 ac              ??         ACh
        00102247 9b              ??         9Bh
        00102248 e2              ??         E2h
        00102249 ac              ??         ACh
        0010224a 9b              ??         9Bh
        0010224b f0              ??         F0h
        0010224c 9f              ??         9Fh
        0010224d 9f              ??         9Fh
        0010224e a8              ??         A8h
        0010224f f0              ??         F0h
        00102250 9f              ??         9Fh
        00102251 9f              ??         9Fh
        00102252 a8              ??         A8h
        00102253 f0              ??         F0h
        00102254 9f              ??         9Fh
        00102255 9f              ??         9Fh
        00102256 a8              ??         A8h
        00102257 f0              ??         F0h
        00102258 9f              ??         9Fh
        00102259 9f              ??         9Fh
        0010225a a8              ??         A8h
        0010225b f0              ??         F0h
        0010225c 9f              ??         9Fh
        0010225d 9f              ??         9Fh
        0010225e a8              ??         A8h
        0010225f e2              ??         E2h
        00102260 ac              ??         ACh
        00102261 9b              ??         9Bh
        00102262 0a              ??         0Ah
        00102263 20              ??         20h     
        00102264 20              ??         20h     
        00102265 20              ??         20h     
        00102266 20              ??         20h     
        00102267 e2              ??         E2h
        00102268 ac              ??         ACh
        00102269 9b              ??         9Bh
        0010226a e2              ??         E2h
        0010226b ac              ??         ACh
        0010226c 9b              ??         9Bh
        0010226d e2              ??         E2h
        0010226e ac              ??         ACh
        0010226f 9b              ??         9Bh
        00102270 e2              ??         E2h
        00102271 ac              ??         ACh
        00102272 9b              ??         9Bh
        00102273 e2              ??         E2h
        00102274 ac              ??         ACh
        00102275 9b              ??         9Bh
        00102276 20              ??         20h     
        00102277 20              ??         20h     
        00102278 20              ??         20h     
        00102279 20              ??         20h     
        0010227a 20              ??         20h     
        0010227b 20              ??         20h     
        0010227c e2              ??         E2h
        0010227d ac              ??         ACh
        0010227e 9b              ??         9Bh
        0010227f e2              ??         E2h
        00102280 ac              ??         ACh
        00102281 9b              ??         9Bh
        00102282 e2              ??         E2h
        00102283 ac              ??         ACh
        00102284 9b              ??         9Bh
        00102285 e2              ??         E2h
        00102286 ac              ??         ACh
        00102287 9b              ??         9Bh
        00102288 e2              ??         E2h
        00102289 ac              ??         ACh
        0010228a 9b              ??         9Bh
        0010228b 0a              ??         0Ah
        0010228c 0a              ??         0Ah
        0010228d 25              ??         25h    %
        0010228e 73              ??         73h    s
        0010228f 00              ??         00h
                             DAT_00102290                                    XREF[2]:     banner:00101484(*), 
                                                                                          banner:0010148b(*)  
        00102290 0a              ??         0Ah
        00102291 0a              ??         0Ah
        00102292 0a              ??         0Ah
        00102293 0a              ??         0Ah
        00102294 20              ??         20h     
        00102295 20              ??         20h     
        00102296 20              ??         20h     
        00102297 20              ??         20h     
        00102298 20              ??         20h     
        00102299 20              ??         20h     
        0010229a 20              ??         20h     
        0010229b 20              ??         20h     
        0010229c 20              ??         20h     
        0010229d 20              ??         20h     
        0010229e 20              ??         20h     
        0010229f 20              ??         20h     
        001022a0 20              ??         20h     
        001022a1 20              ??         20h     
        001022a2 20              ??         20h     
        001022a3 20              ??         20h     
        001022a4 20              ??         20h     
        001022a5 20              ??         20h     
        001022a6 20              ??         20h     
        001022a7 20              ??         20h     
        001022a8 20              ??         20h     
        001022a9 20              ??         20h     
        001022aa 20              ??         20h     
        001022ab e2              ??         E2h
        001022ac ac              ??         ACh
        001022ad 9b              ??         9Bh
        001022ae e2              ??         E2h
        001022af ac              ??         ACh
        001022b0 9b              ??         9Bh
        001022b1 e2              ??         E2h
        001022b2 ac              ??         ACh
        001022b3 9b              ??         9Bh
        001022b4 e2              ??         E2h
        001022b5 ac              ??         ACh
        001022b6 9b              ??         9Bh
        001022b7 e2              ??         E2h
        001022b8 ac              ??         ACh
        001022b9 9b              ??         9Bh
        001022ba e2              ??         E2h
        001022bb ac              ??         ACh
        001022bc 9b              ??         9Bh
        001022bd 0a              ??         0Ah
        001022be 20              ??         20h     
        001022bf 20              ??         20h     
        001022c0 20              ??         20h     
        001022c1 20              ??         20h     
        001022c2 20              ??         20h     
        001022c3 20              ??         20h     
        001022c4 20              ??         20h     
        001022c5 20              ??         20h     
        001022c6 20              ??         20h     
        001022c7 20              ??         20h     
        001022c8 20              ??         20h     
        001022c9 20              ??         20h     
        001022ca 20              ??         20h     
        001022cb 20              ??         20h     
        001022cc 20              ??         20h     
        001022cd 20              ??         20h     
        001022ce 20              ??         20h     
        001022cf 20              ??         20h     
        001022d0 20              ??         20h     
        001022d1 e2              ??         E2h
        001022d2 ac              ??         ACh
        001022d3 9b              ??         9Bh
        001022d4 e2              ??         E2h
        001022d5 ac              ??         ACh
        001022d6 9b              ??         9Bh
        001022d7 f0              ??         F0h
        001022d8 9f              ??         9Fh
        001022d9 9f              ??         9Fh
        001022da a5              ??         A5h
        001022db f0              ??         F0h
        001022dc 9f              ??         9Fh
        001022dd 9f              ??         9Fh
        001022de a5              ??         A5h
        001022df f0              ??         F0h
        001022e0 9f              ??         9Fh
        001022e1 9f              ??         9Fh
        001022e2 a5              ??         A5h
        001022e3 f0              ??         F0h
        001022e4 9f              ??         9Fh
        001022e5 9f              ??         9Fh
        001022e6 a5              ??         A5h
        001022e7 f0              ??         F0h
        001022e8 9f              ??         9Fh
        001022e9 9f              ??         9Fh
        001022ea a5              ??         A5h
        001022eb f0              ??         F0h
        001022ec 9f              ??         9Fh
        001022ed 9f              ??         9Fh
        001022ee a5              ??         A5h
        001022ef e2              ??         E2h
        001022f0 ac              ??         ACh
        001022f1 9b              ??         9Bh
        001022f2 e2              ??         E2h
        001022f3 ac              ??         ACh
        001022f4 9b              ??         9Bh
        001022f5 0a              ??         0Ah
        001022f6 20              ??         20h     
        001022f7 20              ??         20h     
        001022f8 20              ??         20h     
        001022f9 20              ??         20h     
        001022fa 20              ??         20h     
        001022fb 20              ??         20h     
        001022fc 20              ??         20h     
        001022fd 20              ??         20h     
        001022fe 20              ??         20h     
        001022ff 20              ??         20h     
        00102300 20              ??         20h     
        00102301 20              ??         20h     
        00102302 20              ??         20h     
        00102303 20              ??         20h     
        00102304 20              ??         20h     
        00102305 20              ??         20h     
        00102306 20              ??         20h     
        00102307 e2              ??         E2h
        00102308 ac              ??         ACh
        00102309 9b              ??         9Bh
        0010230a f0              ??         F0h
        0010230b 9f              ??         9Fh
        0010230c 9f              ??         9Fh
        0010230d a5              ??         A5h
        0010230e f0              ??         F0h
        0010230f 9f              ??         9Fh
        00102310 9f              ??         9Fh
        00102311 a5              ??         A5h
        00102312 f0              ??         F0h
        00102313 9f              ??         9Fh
        00102314 9f              ??         9Fh
        00102315 a5              ??         A5h
        00102316 f0              ??         F0h
        00102317 9f              ??         9Fh
        00102318 9f              ??         9Fh
        00102319 a5              ??         A5h
        0010231a e2              ??         E2h
        0010231b ac              ??         ACh
        0010231c 9c              ??         9Ch
        0010231d e2              ??         E2h
        0010231e ac              ??         ACh
        0010231f 9c              ??         9Ch
        00102320 f0              ??         F0h
        00102321 9f              ??         9Fh
        00102322 9f              ??         9Fh
        00102323 a5              ??         A5h
        00102324 f0              ??         F0h
        00102325 9f              ??         9Fh
        00102326 9f              ??         9Fh
        00102327 a5              ??         A5h
        00102328 f0              ??         F0h
        00102329 9f              ??         9Fh
        0010232a 9f              ??         9Fh
        0010232b a5              ??         A5h
        0010232c f0              ??         F0h
        0010232d 9f              ??         9Fh
        0010232e 9f              ??         9Fh
        0010232f a5              ??         A5h
        00102330 e2              ??         E2h
        00102331 ac              ??         ACh
        00102332 9b              ??         9Bh
        00102333 0a              ??         0Ah
        00102334 20              ??         20h     
        00102335 20              ??         20h     
        00102336 20              ??         20h     
        00102337 20              ??         20h     
        00102338 20              ??         20h     
        00102339 20              ??         20h     
        0010233a 20              ??         20h     
        0010233b 20              ??         20h     
        0010233c 20              ??         20h     
        0010233d 20              ??         20h     
        0010233e 20              ??         20h     
        0010233f 20              ??         20h     
        00102340 20              ??         20h     
        00102341 20              ??         20h     
        00102342 20              ??         20h     
        00102343 e2              ??         E2h
        00102344 ac              ??         ACh
        00102345 9b              ??         9Bh
        00102346 f0              ??         F0h
        00102347 9f              ??         9Fh
        00102348 9f              ??         9Fh
        00102349 a5              ??         A5h
        0010234a f0              ??         F0h
        0010234b 9f              ??         9Fh
        0010234c 9f              ??         9Fh
        0010234d a5              ??         A5h
        0010234e f0              ??         F0h
        0010234f 9f              ??         9Fh
        00102350 9f              ??         9Fh
        00102351 a5              ??         A5h
        00102352 f0              ??         F0h
        00102353 9f              ??         9Fh
        00102354 9f              ??         9Fh
        00102355 a5              ??         A5h
        00102356 e2              ??         E2h
        00102357 ac              ??         ACh
        00102358 9c              ??         9Ch
        00102359 e2              ??         E2h
        0010235a ac              ??         ACh
        0010235b 9c              ??         9Ch
        0010235c e2              ??         E2h
        0010235d ac              ??         ACh
        0010235e 9c              ??         9Ch
        0010235f e2              ??         E2h
        00102360 ac              ??         ACh
        00102361 9c              ??         9Ch
        00102362 f0              ??         F0h
        00102363 9f              ??         9Fh
        00102364 9f              ??         9Fh
        00102365 a5              ??         A5h
        00102366 f0              ??         F0h
        00102367 9f              ??         9Fh
        00102368 9f              ??         9Fh
        00102369 a5              ??         A5h
        0010236a f0              ??         F0h
        0010236b 9f              ??         9Fh
        0010236c 9f              ??         9Fh
        0010236d a5              ??         A5h
        0010236e f0              ??         F0h
        0010236f 9f              ??         9Fh
        00102370 9f              ??         9Fh
        00102371 a5              ??         A5h
        00102372 e2              ??         E2h
        00102373 ac              ??         ACh
        00102374 9b              ??         9Bh
        00102375 0a              ??         0Ah
        00102376 20              ??         20h     
        00102377 20              ??         20h     
        00102378 20              ??         20h     
        00102379 20              ??         20h     
        0010237a 20              ??         20h     
        0010237b 20              ??         20h     
        0010237c 20              ??         20h     
        0010237d 20              ??         20h     
        0010237e 20              ??         20h     
        0010237f 20              ??         20h     
        00102380 20              ??         20h     
        00102381 20              ??         20h     
        00102382 20              ??         20h     
        00102383 20              ??         20h     
        00102384 20              ??         20h     
        00102385 e2              ??         E2h
        00102386 ac              ??         ACh
        00102387 9b              ??         9Bh
        00102388 f0              ??         F0h
        00102389 9f              ??         9Fh
        0010238a 9f              ??         9Fh
        0010238b a5              ??         A5h
        0010238c f0              ??         F0h
        0010238d 9f              ??         9Fh
        0010238e 9f              ??         9Fh
        0010238f a5              ??         A5h
        00102390 e2              ??         E2h
        00102391 ac              ??         ACh
        00102392 9b              ??         9Bh
        00102393 e2              ??         E2h
        00102394 ac              ??         ACh
        00102395 9b              ??         9Bh
        00102396 e2              ??         E2h
        00102397 ac              ??         ACh
        00102398 9b              ??         9Bh
        00102399 e2              ??         E2h
        0010239a ac              ??         ACh
        0010239b 9b              ??         9Bh
        0010239c e2              ??         E2h
        0010239d ac              ??         ACh
        0010239e 9b              ??         9Bh
        0010239f e2              ??         E2h
        001023a0 ac              ??         ACh
        001023a1 9b              ??         9Bh
        001023a2 e2              ??         E2h
        001023a3 ac              ??         ACh
        001023a4 9b              ??         9Bh
        001023a5 e2              ??         E2h
        001023a6 ac              ??         ACh
        001023a7 9b              ??         9Bh
        001023a8 f0              ??         F0h
        001023a9 9f              ??         9Fh
        001023aa 9f              ??         9Fh
        001023ab a5              ??         A5h
        001023ac f0              ??         F0h
        001023ad 9f              ??         9Fh
        001023ae 9f              ??         9Fh
        001023af a5              ??         A5h
        001023b0 e2              ??         E2h
        001023b1 ac              ??         ACh
        001023b2 9b              ??         9Bh
        001023b3 0a              ??         0Ah
        001023b4 20              ??         20h     
        001023b5 20              ??         20h     
        001023b6 20              ??         20h     
        001023b7 20              ??         20h     
        001023b8 20              ??         20h     
        001023b9 20              ??         20h     
        001023ba 20              ??         20h     
        001023bb 20              ??         20h     
        001023bc 20              ??         20h     
        001023bd 20              ??         20h     
        001023be 20              ??         20h     
        001023bf 20              ??         20h     
        001023c0 20              ??         20h     
        001023c1 20              ??         20h     
        001023c2 20              ??         20h     
        001023c3 e2              ??         E2h
        001023c4 ac              ??         ACh
        001023c5 9b              ??         9Bh
        001023c6 f0              ??         F0h
        001023c7 9f              ??         9Fh
        001023c8 9f              ??         9Fh
        001023c9 a5              ??         A5h
        001023ca e2              ??         E2h
        001023cb ac              ??         ACh
        001023cc 9b              ??         9Bh
        001023cd f0              ??         F0h
        001023ce 9f              ??         9Fh
        001023cf 9f              ??         9Fh
        001023d0 a5              ??         A5h
        001023d1 f0              ??         F0h
        001023d2 9f              ??         9Fh
        001023d3 9f              ??         9Fh
        001023d4 a5              ??         A5h
        001023d5 f0              ??         F0h
        001023d6 9f              ??         9Fh
        001023d7 9f              ??         9Fh
        001023d8 a5              ??         A5h
        001023d9 f0              ??         F0h
        001023da 9f              ??         9Fh
        001023db 9f              ??         9Fh
        001023dc a5              ??         A5h
        001023dd f0              ??         F0h
        001023de 9f              ??         9Fh
        001023df 9f              ??         9Fh
        001023e0 a5              ??         A5h
        001023e1 f0              ??         F0h
        001023e2 9f              ??         9Fh
        001023e3 9f              ??         9Fh
        001023e4 a5              ??         A5h
        001023e5 f0              ??         F0h
        001023e6 9f              ??         9Fh
        001023e7 9f              ??         9Fh
        001023e8 a5              ??         A5h
        001023e9 f0              ??         F0h
        001023ea 9f              ??         9Fh
        001023eb 9f              ??         9Fh
        001023ec a5              ??         A5h
        001023ed e2              ??         E2h
        001023ee ac              ??         ACh
        001023ef 9b              ??         9Bh
        001023f0 f0              ??         F0h
        001023f1 9f              ??         9Fh
        001023f2 9f              ??         9Fh
        001023f3 a5              ??         A5h
        001023f4 e2              ??         E2h
        001023f5 ac              ??         ACh
        001023f6 9b              ??         9Bh
        001023f7 0a              ??         0Ah
        001023f8 20              ??         20h     
        001023f9 20              ??         20h     
        001023fa 20              ??         20h     
        001023fb 20              ??         20h     
        001023fc 20              ??         20h     
        001023fd 20              ??         20h     
        001023fe 20              ??         20h     
        001023ff 20              ??         20h     
        00102400 20              ??         20h     
        00102401 20              ??         20h     
        00102402 20              ??         20h     
        00102403 20              ??         20h     
        00102404 20              ??         20h     
        00102405 e2              ??         E2h
        00102406 ac              ??         ACh
        00102407 9b              ??         9Bh
        00102408 e2              ??         E2h
        00102409 ac              ??         ACh
        0010240a 9b              ??         9Bh
        0010240b e2              ??         E2h
        0010240c ac              ??         ACh
        0010240d 9b              ??         9Bh
        0010240e f0              ??         F0h
        0010240f 9f              ??         9Fh
        00102410 9f              ??         9Fh
        00102411 a5              ??         A5h
        00102412 e2              ??         E2h
        00102413 ac              ??         ACh
        00102414 9b              ??         9Bh
        00102415 e2              ??         E2h
        00102416 ac              ??         ACh
        00102417 9b              ??         9Bh
        00102418 e2              ??         E2h
        00102419 ac              ??         ACh
        0010241a 9b              ??         9Bh
        0010241b e2              ??         E2h
        0010241c ac              ??         ACh
        0010241d 9b              ??         9Bh
        0010241e e2              ??         E2h
        0010241f ac              ??         ACh
        00102420 9b              ??         9Bh
        00102421 e2              ??         E2h
        00102422 ac              ??         ACh
        00102423 9b              ??         9Bh
        00102424 e2              ??         E2h
        00102425 ac              ??         ACh
        00102426 9b              ??         9Bh
        00102427 e2              ??         E2h
        00102428 ac              ??         ACh
        00102429 9b              ??         9Bh
        0010242a f0              ??         F0h
        0010242b 9f              ??         9Fh
        0010242c 9f              ??         9Fh
        0010242d a5              ??         A5h
        0010242e e2              ??         E2h
        0010242f ac              ??         ACh
        00102430 9b              ??         9Bh
        00102431 e2              ??         E2h
        00102432 ac              ??         ACh
        00102433 9b              ??         9Bh
        00102434 e2              ??         E2h
        00102435 ac              ??         ACh
        00102436 9b              ??         9Bh
        00102437 0a              ??         0Ah
        00102438 20              ??         20h     
        00102439 20              ??         20h     
        0010243a 20              ??         20h     
        0010243b 20              ??         20h     
        0010243c 20              ??         20h     
        0010243d 20              ??         20h     
        0010243e 20              ??         20h     
        0010243f 20              ??         20h     
        00102440 20              ??         20h     
        00102441 20              ??         20h     
        00102442 20              ??         20h     
        00102443 e2              ??         E2h
        00102444 ac              ??         ACh
        00102445 9b              ??         9Bh
        00102446 f0              ??         F0h
        00102447 9f              ??         9Fh
        00102448 8f              ??         8Fh
        00102449 bb              ??         BBh
        0010244a f0              ??         F0h
        0010244b 9f              ??         9Fh
        0010244c 8f              ??         8Fh
        0010244d bb              ??         BBh
        0010244e e2              ??         E2h
        0010244f ac              ??         ACh
        00102450 9b              ??         9Bh
        00102451 e2              ??         E2h
        00102452 ac              ??         ACh
        00102453 9b              ??         9Bh
        00102454 f0              ??         F0h
        00102455 9f              ??         9Fh
        00102456 8f              ??         8Fh
        00102457 bb              ??         BBh
        00102458 e2              ??         E2h
        00102459 ac              ??         ACh
        0010245a 9c              ??         9Ch
        0010245b e2              ??         E2h
        0010245c ac              ??         ACh
        0010245d 9c              ??         9Ch
        0010245e f0              ??         F0h
        0010245f 9f              ??         9Fh
        00102460 8f              ??         8Fh
        00102461 bb              ??         BBh
        00102462 f0              ??         F0h
        00102463 9f              ??         9Fh
        00102464 8f              ??         8Fh
        00102465 bb              ??         BBh
        00102466 e2              ??         E2h
        00102467 ac              ??         ACh
        00102468 9c              ??         9Ch
        00102469 e2              ??         E2h
        0010246a ac              ??         ACh
        0010246b 9c              ??         9Ch
        0010246c f0              ??         F0h
        0010246d 9f              ??         9Fh
        0010246e 8f              ??         8Fh
        0010246f bb              ??         BBh
        00102470 e2              ??         E2h
        00102471 ac              ??         ACh
        00102472 9b              ??         9Bh
        00102473 e2              ??         E2h
        00102474 ac              ??         ACh
        00102475 9b              ??         9Bh
        00102476 f0              ??         F0h
        00102477 9f              ??         9Fh
        00102478 8f              ??         8Fh
        00102479 bb              ??         BBh
        0010247a f0              ??         F0h
        0010247b 9f              ??         9Fh
        0010247c 8f              ??         8Fh
        0010247d bb              ??         BBh
        0010247e e2              ??         E2h
        0010247f ac              ??         ACh
        00102480 9b              ??         9Bh
        00102481 0a              ??         0Ah
        00102482 20              ??         20h     
        00102483 20              ??         20h     
        00102484 20              ??         20h     
        00102485 20              ??         20h     
        00102486 20              ??         20h     
        00102487 20              ??         20h     
        00102488 20              ??         20h     
        00102489 20              ??         20h     
        0010248a 20              ??         20h     
        0010248b 20              ??         20h     
        0010248c 20              ??         20h     
        0010248d e2              ??         E2h
        0010248e ac              ??         ACh
        0010248f 9b              ??         9Bh
        00102490 f0              ??         F0h
        00102491 9f              ??         9Fh
        00102492 8f              ??         8Fh
        00102493 bb              ??         BBh
        00102494 f0              ??         F0h
        00102495 9f              ??         9Fh
        00102496 8f              ??         8Fh
        00102497 bb              ??         BBh
        00102498 e2              ??         E2h
        00102499 ac              ??         ACh
        0010249a 9b              ??         9Bh
        0010249b f0              ??         F0h
        0010249c 9f              ??         9Fh
        0010249d 8f              ??         8Fh
        0010249e bb              ??         BBh
        0010249f f0              ??         F0h
        001024a0 9f              ??         9Fh
        001024a1 8f              ??         8Fh
        001024a2 bb              ??         BBh
        001024a3 e2              ??         E2h
        001024a4 ac              ??         ACh
        001024a5 9c              ??         9Ch
        001024a6 e2              ??         E2h
        001024a7 ac              ??         ACh
        001024a8 9b              ??         9Bh
        001024a9 f0              ??         F0h
        001024aa 9f              ??         9Fh
        001024ab 8f              ??         8Fh
        001024ac bb              ??         BBh
        001024ad f0              ??         F0h
        001024ae 9f              ??         9Fh
        001024af 8f              ??         8Fh
        001024b0 bb              ??         BBh
        001024b1 e2              ??         E2h
        001024b2 ac              ??         ACh
        001024b3 9b              ??         9Bh
        001024b4 e2              ??         E2h
        001024b5 ac              ??         ACh
        001024b6 9c              ??         9Ch
        001024b7 f0              ??         F0h
        001024b8 9f              ??         9Fh
        001024b9 8f              ??         8Fh
        001024ba bb              ??         BBh
        001024bb f0              ??         F0h
        001024bc 9f              ??         9Fh
        001024bd 8f              ??         8Fh
        001024be bb              ??         BBh
        001024bf e2              ??         E2h
        001024c0 ac              ??         ACh
        001024c1 9b              ??         9Bh
        001024c2 f0              ??         F0h
        001024c3 9f              ??         9Fh
        001024c4 8f              ??         8Fh
        001024c5 bb              ??         BBh
        001024c6 f0              ??         F0h
        001024c7 9f              ??         9Fh
        001024c8 8f              ??         8Fh
        001024c9 bb              ??         BBh
        001024ca e2              ??         E2h
        001024cb ac              ??         ACh
        001024cc 9b              ??         9Bh
        001024cd 0a              ??         0Ah
        001024ce 20              ??         20h     
        001024cf 20              ??         20h     
        001024d0 20              ??         20h     
        001024d1 20              ??         20h     
        001024d2 20              ??         20h     
        001024d3 20              ??         20h     
        001024d4 20              ??         20h     
        001024d5 20              ??         20h     
        001024d6 20              ??         20h     
        001024d7 20              ??         20h     
        001024d8 20              ??         20h     
        001024d9 e2              ??         E2h
        001024da ac              ??         ACh
        001024db 9b              ??         9Bh
        001024dc f0              ??         F0h
        001024dd 9f              ??         9Fh
        001024de 8f              ??         8Fh
        001024df bb              ??         BBh
        001024e0 f0              ??         F0h
        001024e1 9f              ??         9Fh
        001024e2 8f              ??         8Fh
        001024e3 bb              ??         BBh
        001024e4 f0              ??         F0h
        001024e5 9f              ??         9Fh
        001024e6 8f              ??         8Fh
        001024e7 bb              ??         BBh
        001024e8 f0              ??         F0h
        001024e9 9f              ??         9Fh
        001024ea 8f              ??         8Fh
        001024eb bb              ??         BBh
        001024ec f0              ??         F0h
        001024ed 9f              ??         9Fh
        001024ee 8f              ??         8Fh
        001024ef bb              ??         BBh
        001024f0 e2              ??         E2h
        001024f1 ac              ??         ACh
        001024f2 9c              ??         9Ch
        001024f3 e2              ??         E2h
        001024f4 ac              ??         ACh
        001024f5 9b              ??         9Bh
        001024f6 f0              ??         F0h
        001024f7 9f              ??         9Fh
        001024f8 8f              ??         8Fh
        001024f9 bb              ??         BBh
        001024fa f0              ??         F0h
        001024fb 9f              ??         9Fh
        001024fc 8f              ??         8Fh
        001024fd bb              ??         BBh
        001024fe e2              ??         E2h
        001024ff ac              ??         ACh
        00102500 9b              ??         9Bh
        00102501 e2              ??         E2h
        00102502 ac              ??         ACh
        00102503 9c              ??         9Ch
        00102504 f0              ??         F0h
        00102505 9f              ??         9Fh
        00102506 8f              ??         8Fh
        00102507 bb              ??         BBh
        00102508 f0              ??         F0h
        00102509 9f              ??         9Fh
        0010250a 8f              ??         8Fh
        0010250b bb              ??         BBh
        0010250c f0              ??         F0h
        0010250d 9f              ??         9Fh
        0010250e 8f              ??         8Fh
        0010250f bb              ??         BBh
        00102510 f0              ??         F0h
        00102511 9f              ??         9Fh
        00102512 8f              ??         8Fh
        00102513 bb              ??         BBh
        00102514 f0              ??         F0h
        00102515 9f              ??         9Fh
        00102516 8f              ??         8Fh
        00102517 bb              ??         BBh
        00102518 e2              ??         E2h
        00102519 ac              ??         ACh
        0010251a 9b              ??         9Bh
        0010251b 0a              ??         0Ah
        0010251c 20              ??         20h     
        0010251d 20              ??         20h     
        0010251e 20              ??         20h     
        0010251f 20              ??         20h     
        00102520 20              ??         20h     
        00102521 20              ??         20h     
        00102522 20              ??         20h     
        00102523 20              ??         20h     
        00102524 20              ??         20h     
        00102525 20              ??         20h     
        00102526 20              ??         20h     
        00102527 20              ??         20h     
        00102528 20              ??         20h     
        00102529 e2              ??         E2h
        0010252a ac              ??         ACh
        0010252b 9b              ??         9Bh
        0010252c e2              ??         E2h
        0010252d ac              ??         ACh
        0010252e 9b              ??         9Bh
        0010252f f0              ??         F0h
        00102530 9f              ??         9Fh
        00102531 8f              ??         8Fh
        00102532 bb              ??         BBh
        00102533 f0              ??         F0h
        00102534 9f              ??         9Fh
        00102535 8f              ??         8Fh
        00102536 bb              ??         BBh
        00102537 f0              ??         F0h
        00102538 9f              ??         9Fh
        00102539 8f              ??         8Fh
        0010253a bb              ??         BBh
        0010253b e2              ??         E2h
        0010253c ac              ??         ACh
        0010253d 9b              ??         9Bh
        0010253e f0              ??         F0h
        0010253f 9f              ??         9Fh
        00102540 8f              ??         8Fh
        00102541 bb              ??         BBh
        00102542 f0              ??         F0h
        00102543 9f              ??         9Fh
        00102544 8f              ??         8Fh
        00102545 bb              ??         BBh
        00102546 f0              ??         F0h
        00102547 9f              ??         9Fh
        00102548 8f              ??         8Fh
        00102549 bb              ??         BBh
        0010254a f0              ??         F0h
        0010254b 9f              ??         9Fh
        0010254c 8f              ??         8Fh
        0010254d bb              ??         BBh
        0010254e e2              ??         E2h
        0010254f ac              ??         ACh
        00102550 9b              ??         9Bh
        00102551 f0              ??         F0h
        00102552 9f              ??         9Fh
        00102553 8f              ??         8Fh
        00102554 bb              ??         BBh
        00102555 f0              ??         F0h
        00102556 9f              ??         9Fh
        00102557 8f              ??         8Fh
        00102558 bb              ??         BBh
        00102559 f0              ??         F0h
        0010255a 9f              ??         9Fh
        0010255b 8f              ??         8Fh
        0010255c bb              ??         BBh
        0010255d e2              ??         E2h
        0010255e ac              ??         ACh
        0010255f 9b              ??         9Bh
        00102560 e2              ??         E2h
        00102561 ac              ??         ACh
        00102562 9b              ??         9Bh
        00102563 0a              ??         0Ah
        00102564 20              ??         20h     
        00102565 20              ??         20h     
        00102566 20              ??         20h     
        00102567 20              ??         20h     
        00102568 20              ??         20h     
        00102569 20              ??         20h     
        0010256a 20              ??         20h     
        0010256b 20              ??         20h     
        0010256c 20              ??         20h     
        0010256d 20              ??         20h     
        0010256e 20              ??         20h     
        0010256f 20              ??         20h     
        00102570 20              ??         20h     
        00102571 20              ??         20h     
        00102572 20              ??         20h     
        00102573 20              ??         20h     
        00102574 20              ??         20h     
        00102575 e2              ??         E2h
        00102576 ac              ??         ACh
        00102577 9b              ??         9Bh
        00102578 f0              ??         F0h
        00102579 9f              ??         9Fh
        0010257a 8f              ??         8Fh
        0010257b bb              ??         BBh
        0010257c e2              ??         E2h
        0010257d ac              ??         ACh
        0010257e 9b              ??         9Bh
        0010257f e2              ??         E2h
        00102580 ac              ??         ACh
        00102581 9b              ??         9Bh
        00102582 f0              ??         F0h
        00102583 9f              ??         9Fh
        00102584 8f              ??         8Fh
        00102585 bb              ??         BBh
        00102586 f0              ??         F0h
        00102587 9f              ??         9Fh
        00102588 8f              ??         8Fh
        00102589 bb              ??         BBh
        0010258a f0              ??         F0h
        0010258b 9f              ??         9Fh
        0010258c 8f              ??         8Fh
        0010258d bb              ??         BBh
        0010258e f0              ??         F0h
        0010258f 9f              ??         9Fh
        00102590 8f              ??         8Fh
        00102591 bb              ??         BBh
        00102592 e2              ??         E2h
        00102593 ac              ??         ACh
        00102594 9b              ??         9Bh
        00102595 e2              ??         E2h
        00102596 ac              ??         ACh
        00102597 9b              ??         9Bh
        00102598 f0              ??         F0h
        00102599 9f              ??         9Fh
        0010259a 8f              ??         8Fh
        0010259b bb              ??         BBh
        0010259c e2              ??         E2h
        0010259d ac              ??         ACh
        0010259e 9b              ??         9Bh
        0010259f 0a              ??         0Ah
        001025a0 20              ??         20h     
        001025a1 20              ??         20h     
        001025a2 20              ??         20h     
        001025a3 20              ??         20h     
        001025a4 20              ??         20h     
        001025a5 20              ??         20h     
        001025a6 20              ??         20h     
        001025a7 20              ??         20h     
        001025a8 20              ??         20h     
        001025a9 20              ??         20h     
        001025aa 20              ??         20h     
        001025ab 20              ??         20h     
        001025ac 20              ??         20h     
        001025ad 20              ??         20h     
        001025ae 20              ??         20h     
        001025af 20              ??         20h     
        001025b0 20              ??         20h     
        001025b1 e2              ??         E2h
        001025b2 ac              ??         ACh
        001025b3 9b              ??         9Bh
        001025b4 f0              ??         F0h
        001025b5 9f              ??         9Fh
        001025b6 8f              ??         8Fh
        001025b7 bb              ??         BBh
        001025b8 f0              ??         F0h
        001025b9 9f              ??         9Fh
        001025ba 8f              ??         8Fh
        001025bb bb              ??         BBh
        001025bc e2              ??         E2h
        001025bd ac              ??         ACh
        001025be 9b              ??         9Bh
        001025bf e2              ??         E2h
        001025c0 ac              ??         ACh
        001025c1 9b              ??         9Bh
        001025c2 e2              ??         E2h
        001025c3 ac              ??         ACh
        001025c4 9b              ??         9Bh
        001025c5 e2              ??         E2h
        001025c6 ac              ??         ACh
        001025c7 9b              ??         9Bh
        001025c8 e2              ??         E2h
        001025c9 ac              ??         ACh
        001025ca 9b              ??         9Bh
        001025cb e2              ??         E2h
        001025cc ac              ??         ACh
        001025cd 9b              ??         9Bh
        001025ce f0              ??         F0h
        001025cf 9f              ??         9Fh
        001025d0 8f              ??         8Fh
        001025d1 bb              ??         BBh
        001025d2 f0              ??         F0h
        001025d3 9f              ??         9Fh
        001025d4 8f              ??         8Fh
        001025d5 bb              ??         BBh
        001025d6 e2              ??         E2h
        001025d7 ac              ??         ACh
        001025d8 9b              ??         9Bh
        001025d9 0a              ??         0Ah
        001025da 20              ??         20h     
        001025db 20              ??         20h     
        001025dc 20              ??         20h     
        001025dd 20              ??         20h     
        001025de 20              ??         20h     
        001025df 20              ??         20h     
        001025e0 20              ??         20h     
        001025e1 20              ??         20h     
        001025e2 20              ??         20h     
        001025e3 20              ??         20h     
        001025e4 20              ??         20h     
        001025e5 20              ??         20h     
        001025e6 20              ??         20h     
        001025e7 20              ??         20h     
        001025e8 20              ??         20h     
        001025e9 20              ??         20h     
        001025ea 20              ??         20h     
        001025eb 20              ??         20h     
        001025ec 20              ??         20h     
        001025ed e2              ??         E2h
        001025ee ac              ??         ACh
        001025ef 9b              ??         9Bh
        001025f0 f0              ??         F0h
        001025f1 9f              ??         9Fh
        001025f2 8f              ??         8Fh
        001025f3 bb              ??         BBh
        001025f4 f0              ??         F0h
        001025f5 9f              ??         9Fh
        001025f6 8f              ??         8Fh
        001025f7 bb              ??         BBh
        001025f8 e2              ??         E2h
        001025f9 ac              ??         ACh
        001025fa 9b              ??         9Bh
        001025fb e2              ??         E2h
        001025fc ac              ??         ACh
        001025fd 9b              ??         9Bh
        001025fe e2              ??         E2h
        001025ff ac              ??         ACh
        00102600 9b              ??         9Bh
        00102601 e2              ??         E2h
        00102602 ac              ??         ACh
        00102603 9b              ??         9Bh
        00102604 f0              ??         F0h
        00102605 9f              ??         9Fh
        00102606 8f              ??         8Fh
        00102607 bb              ??         BBh
        00102608 f0              ??         F0h
        00102609 9f              ??         9Fh
        0010260a 8f              ??         8Fh
        0010260b bb              ??         BBh
        0010260c e2              ??         E2h
        0010260d ac              ??         ACh
        0010260e 9b              ??         9Bh
        0010260f 0a              ??         0Ah
        00102610 20              ??         20h     
        00102611 20              ??         20h     
        00102612 20              ??         20h     
        00102613 20              ??         20h     
        00102614 20              ??         20h     
        00102615 20              ??         20h     
        00102616 20              ??         20h     
        00102617 20              ??         20h     
        00102618 20              ??         20h     
        00102619 20              ??         20h     
        0010261a 20              ??         20h     
        0010261b 20              ??         20h     
        0010261c 20              ??         20h     
        0010261d 20              ??         20h     
        0010261e 20              ??         20h     
        0010261f 20              ??         20h     
        00102620 20              ??         20h     
        00102621 20              ??         20h     
        00102622 20              ??         20h     
        00102623 e2              ??         E2h
        00102624 ac              ??         ACh
        00102625 9b              ??         9Bh
        00102626 f0              ??         F0h
        00102627 9f              ??         9Fh
        00102628 8f              ??         8Fh
        00102629 bb              ??         BBh
        0010262a f0              ??         F0h
        0010262b 9f              ??         9Fh
        0010262c 8f              ??         8Fh
        0010262d bb              ??         BBh
        0010262e f0              ??         F0h
        0010262f 9f              ??         9Fh
        00102630 8f              ??         8Fh
        00102631 bb              ??         BBh
        00102632 f0              ??         F0h
        00102633 9f              ??         9Fh
        00102634 8f              ??         8Fh
        00102635 bb              ??         BBh
        00102636 f0              ??         F0h
        00102637 9f              ??         9Fh
        00102638 8f              ??         8Fh
        00102639 bb              ??         BBh
        0010263a f0              ??         F0h
        0010263b 9f              ??         9Fh
        0010263c 8f              ??         8Fh
        0010263d bb              ??         BBh
        0010263e f0              ??         F0h
        0010263f 9f              ??         9Fh
        00102640 8f              ??         8Fh
        00102641 bb              ??         BBh
        00102642 f0              ??         F0h
        00102643 9f              ??         9Fh
        00102644 8f              ??         8Fh
        00102645 bb              ??         BBh
        00102646 e2              ??         E2h
        00102647 ac              ??         ACh
        00102648 9b              ??         9Bh
        00102649 0a              ??         0Ah
        0010264a 20              ??         20h     
        0010264b 20              ??         20h     
        0010264c 20              ??         20h     
        0010264d 20              ??         20h     
        0010264e 20              ??         20h     
        0010264f 20              ??         20h     
        00102650 20              ??         20h     
        00102651 20              ??         20h     
        00102652 20              ??         20h     
        00102653 20              ??         20h     
        00102654 20              ??         20h     
        00102655 20              ??         20h     
        00102656 20              ??         20h     
        00102657 20              ??         20h     
        00102658 20              ??         20h     
        00102659 20              ??         20h     
        0010265a 20              ??         20h     
        0010265b e2              ??         E2h
        0010265c ac              ??         ACh
        0010265d 9b              ??         9Bh
        0010265e f0              ??         F0h
        0010265f 9f              ??         9Fh
        00102660 9f              ??         9Fh
        00102661 a6              ??         A6h
        00102662 e2              ??         E2h
        00102663 ac              ??         ACh
        00102664 9b              ??         9Bh
        00102665 f0              ??         F0h
        00102666 9f              ??         9Fh
        00102667 8f              ??         8Fh
        00102668 bb              ??         BBh
        00102669 f0              ??         F0h
        0010266a 9f              ??         9Fh
        0010266b 8f              ??         8Fh
        0010266c bb              ??         BBh
        0010266d f0              ??         F0h
        0010266e 9f              ??         9Fh
        0010266f 8f              ??         8Fh
        00102670 bb              ??         BBh
        00102671 f0              ??         F0h
        00102672 9f              ??         9Fh
        00102673 8f              ??         8Fh
        00102674 bb              ??         BBh
        00102675 f0              ??         F0h
        00102676 9f              ??         9Fh
        00102677 8f              ??         8Fh
        00102678 bb              ??         BBh
        00102679 f0              ??         F0h
        0010267a 9f              ??         9Fh
        0010267b 8f              ??         8Fh
        0010267c bb              ??         BBh
        0010267d e2              ??         E2h
        0010267e ac              ??         ACh
        0010267f 9b              ??         9Bh
        00102680 f0              ??         F0h
        00102681 9f              ??         9Fh
        00102682 9f              ??         9Fh
        00102683 a6              ??         A6h
        00102684 e2              ??         E2h
        00102685 ac              ??         ACh
        00102686 9b              ??         9Bh
        00102687 0a              ??         0Ah
        00102688 20              ??         20h     
        00102689 20              ??         20h     
        0010268a 20              ??         20h     
        0010268b 20              ??         20h     
        0010268c 20              ??         20h     
        0010268d 20              ??         20h     
        0010268e 20              ??         20h     
        0010268f 20              ??         20h     
        00102690 20              ??         20h     
        00102691 20              ??         20h     
        00102692 20              ??         20h     
        00102693 20              ??         20h     
        00102694 20              ??         20h     
        00102695 20              ??         20h     
        00102696 20              ??         20h     
        00102697 e2              ??         E2h
        00102698 ac              ??         ACh
        00102699 9b              ??         9Bh
        0010269a f0              ??         F0h
        0010269b 9f              ??         9Fh
        0010269c 9f              ??         9Fh
        0010269d a5              ??         A5h
        0010269e f0              ??         F0h
        0010269f 9f              ??         9Fh
        001026a0 9f              ??         9Fh
        001026a1 a6              ??         A6h
        001026a2 e2              ??         E2h
        001026a3 ac              ??         ACh
        001026a4 9b              ??         9Bh
        001026a5 e2              ??         E2h
        001026a6 ac              ??         ACh
        001026a7 9b              ??         9Bh
        001026a8 e2              ??         E2h
        001026a9 ac              ??         ACh
        001026aa 9b              ??         9Bh
        001026ab e2              ??         E2h
        001026ac ac              ??         ACh
        001026ad 9b              ??         9Bh
        001026ae e2              ??         E2h
        001026af ac              ??         ACh
        001026b0 9b              ??         9Bh
        001026b1 e2              ??         E2h
        001026b2 ac              ??         ACh
        001026b3 9b              ??         9Bh
        001026b4 e2              ??         E2h
        001026b5 ac              ??         ACh
        001026b6 9b              ??         9Bh
        001026b7 e2              ??         E2h
        001026b8 ac              ??         ACh
        001026b9 9b              ??         9Bh
        001026ba f0              ??         F0h
        001026bb 9f              ??         9Fh
        001026bc 9f              ??         9Fh
        001026bd a6              ??         A6h
        001026be f0              ??         F0h
        001026bf 9f              ??         9Fh
        001026c0 9f              ??         9Fh
        001026c1 a5              ??         A5h
        001026c2 e2              ??         E2h
        001026c3 ac              ??         ACh
        001026c4 9b              ??         9Bh
        001026c5 0a              ??         0Ah
        001026c6 20              ??         20h     
        001026c7 20              ??         20h     
        001026c8 20              ??         20h     
        001026c9 20              ??         20h     
        001026ca 20              ??         20h     
        001026cb 20              ??         20h     
        001026cc 20              ??         20h     
        001026cd 20              ??         20h     
        001026ce 20              ??         20h     
        001026cf 20              ??         20h     
        001026d0 20              ??         20h     
        001026d1 20              ??         20h     
        001026d2 20              ??         20h     
        001026d3 e2              ??         E2h
        001026d4 ac              ??         ACh
        001026d5 9b              ??         9Bh
        001026d6 f0              ??         F0h
        001026d7 9f              ??         9Fh
        001026d8 9f              ??         9Fh
        001026d9 a5              ??         A5h
        001026da f0              ??         F0h
        001026db 9f              ??         9Fh
        001026dc 9f              ??         9Fh
        001026dd a5              ??         A5h
        001026de f0              ??         F0h
        001026df 9f              ??         9Fh
        001026e0 9f              ??         9Fh
        001026e1 a6              ??         A6h
        001026e2 f0              ??         F0h
        001026e3 9f              ??         9Fh
        001026e4 9f              ??         9Fh
        001026e5 a6              ??         A6h
        001026e6 f0              ??         F0h
        001026e7 9f              ??         9Fh
        001026e8 9f              ??         9Fh
        001026e9 a5              ??         A5h
        001026ea f0              ??         F0h
        001026eb 9f              ??         9Fh
        001026ec 9f              ??         9Fh
        001026ed a5              ??         A5h
        001026ee f0              ??         F0h
        001026ef 9f              ??         9Fh
        001026f0 9f              ??         9Fh
        001026f1 a5              ??         A5h
        001026f2 f0              ??         F0h
        001026f3 9f              ??         9Fh
        001026f4 9f              ??         9Fh
        001026f5 a5              ??         A5h
        001026f6 f0              ??         F0h
        001026f7 9f              ??         9Fh
        001026f8 9f              ??         9Fh
        001026f9 a5              ??         A5h
        001026fa f0              ??         F0h
        001026fb 9f              ??         9Fh
        001026fc 9f              ??         9Fh
        001026fd a5              ??         A5h
        001026fe f0              ??         F0h
        001026ff 9f              ??         9Fh
        00102700 9f              ??         9Fh
        00102701 a6              ??         A6h
        00102702 f0              ??         F0h
        00102703 9f              ??         9Fh
        00102704 9f              ??         9Fh
        00102705 a6              ??         A6h
        00102706 f0              ??         F0h
        00102707 9f              ??         9Fh
        00102708 9f              ??         9Fh
        00102709 a5              ??         A5h
        0010270a f0              ??         F0h
        0010270b 9f              ??         9Fh
        0010270c 9f              ??         9Fh
        0010270d a5              ??         A5h
        0010270e e2              ??         E2h
        0010270f ac              ??         ACh
        00102710 9b              ??         9Bh
        00102711 0a              ??         0Ah
        00102712 20              ??         20h     
        00102713 20              ??         20h     
        00102714 20              ??         20h     
        00102715 20              ??         20h     
        00102716 20              ??         20h     
        00102717 20              ??         20h     
        00102718 20              ??         20h     
        00102719 20              ??         20h     
        0010271a 20              ??         20h     
        0010271b 20              ??         20h     
        0010271c 20              ??         20h     
        0010271d 20              ??         20h     
        0010271e 20              ??         20h     
        0010271f e2              ??         E2h
        00102720 ac              ??         ACh
        00102721 9b              ??         9Bh
        00102722 f0              ??         F0h
        00102723 9f              ??         9Fh
        00102724 9f              ??         9Fh
        00102725 a5              ??         A5h
        00102726 f0              ??         F0h
        00102727 9f              ??         9Fh
        00102728 9f              ??         9Fh
        00102729 a5              ??         A5h
        0010272a e2              ??         E2h
        0010272b ac              ??         ACh
        0010272c 9c              ??         9Ch
        0010272d e2              ??         E2h
        0010272e ac              ??         ACh
        0010272f 9c              ??         9Ch
        00102730 e2              ??         E2h
        00102731 ac              ??         ACh
        00102732 9c              ??         9Ch
        00102733 f0              ??         F0h
        00102734 9f              ??         9Fh
        00102735 9f              ??         9Fh
        00102736 a6              ??         A6h
        00102737 f0              ??         F0h
        00102738 9f              ??         9Fh
        00102739 9f              ??         9Fh
        0010273a a6              ??         A6h
        0010273b f0              ??         F0h
        0010273c 9f              ??         9Fh
        0010273d 9f              ??         9Fh
        0010273e a6              ??         A6h
        0010273f f0              ??         F0h
        00102740 9f              ??         9Fh
        00102741 9f              ??         9Fh
        00102742 a6              ??         A6h
        00102743 e2              ??         E2h
        00102744 ac              ??         ACh
        00102745 9c              ??         9Ch
        00102746 e2              ??         E2h
        00102747 ac              ??         ACh
        00102748 9c              ??         9Ch
        00102749 e2              ??         E2h
        0010274a ac              ??         ACh
        0010274b 9c              ??         9Ch
        0010274c f0              ??         F0h
        0010274d 9f              ??         9Fh
        0010274e 9f              ??         9Fh
        0010274f a5              ??         A5h
        00102750 f0              ??         F0h
        00102751 9f              ??         9Fh
        00102752 9f              ??         9Fh
        00102753 a5              ??         A5h
        00102754 e2              ??         E2h
        00102755 ac              ??         ACh
        00102756 9b              ??         9Bh
        00102757 0a              ??         0Ah
        00102758 20              ??         20h     
        00102759 20              ??         20h     
        0010275a 20              ??         20h     
        0010275b 20              ??         20h     
        0010275c 20              ??         20h     
        0010275d 20              ??         20h     
        0010275e 20              ??         20h     
        0010275f 20              ??         20h     
        00102760 20              ??         20h     
        00102761 20              ??         20h     
        00102762 20              ??         20h     
        00102763 20              ??         20h     
        00102764 20              ??         20h     
        00102765 e2              ??         E2h
        00102766 ac              ??         ACh
        00102767 9b              ??         9Bh
        00102768 f0              ??         F0h
        00102769 9f              ??         9Fh
        0010276a 9f              ??         9Fh
        0010276b a5              ??         A5h
        0010276c e2              ??         E2h
        0010276d ac              ??         ACh
        0010276e 9c              ??         9Ch
        0010276f e2              ??         E2h
        00102770 ac              ??         ACh
        00102771 9c              ??         9Ch
        00102772 e2              ??         E2h
        00102773 ac              ??         ACh
        00102774 9c              ??         9Ch
        00102775 e2              ??         E2h
        00102776 ac              ??         ACh
        00102777 9c              ??         9Ch
        00102778 e2              ??         E2h
        00102779 ac              ??         ACh
        0010277a 9b              ??         9Bh
        0010277b e2              ??         E2h
        0010277c ac              ??         ACh
        0010277d 9b              ??         9Bh
        0010277e e2              ??         E2h
        0010277f ac              ??         ACh
        00102780 9b              ??         9Bh
        00102781 e2              ??         E2h
        00102782 ac              ??         ACh
        00102783 9b              ??         9Bh
        00102784 e2              ??         E2h
        00102785 ac              ??         ACh
        00102786 9c              ??         9Ch
        00102787 e2              ??         E2h
        00102788 ac              ??         ACh
        00102789 9c              ??         9Ch
        0010278a e2              ??         E2h
        0010278b ac              ??         ACh
        0010278c 9c              ??         9Ch
        0010278d e2              ??         E2h
        0010278e ac              ??         ACh
        0010278f 9c              ??         9Ch
        00102790 f0              ??         F0h
        00102791 9f              ??         9Fh
        00102792 9f              ??         9Fh
        00102793 a5              ??         A5h
        00102794 e2              ??         E2h
        00102795 ac              ??         ACh
        00102796 9b              ??         9Bh
        00102797 0a              ??         0Ah
        00102798 20              ??         20h     
        00102799 20              ??         20h     
        0010279a 20              ??         20h     
        0010279b 20              ??         20h     
        0010279c 20              ??         20h     
        0010279d 20              ??         20h     
        0010279e 20              ??         20h     
        0010279f 20              ??         20h     
        001027a0 20              ??         20h     
        001027a1 20              ??         20h     
        001027a2 20              ??         20h     
        001027a3 20              ??         20h     
        001027a4 20              ??         20h     
        001027a5 20              ??         20h     
        001027a6 20              ??         20h     
        001027a7 e2              ??         E2h
        001027a8 ac              ??         ACh
        001027a9 9b              ??         9Bh
        001027aa e2              ??         E2h
        001027ab ac              ??         ACh
        001027ac 9b              ??         9Bh
        001027ad e2              ??         E2h
        001027ae ac              ??         ACh
        001027af 9c              ??         9Ch
        001027b0 e2              ??         E2h
        001027b1 ac              ??         ACh
        001027b2 9c              ??         9Ch
        001027b3 e2              ??         E2h
        001027b4 ac              ??         ACh
        001027b5 9b              ??         9Bh
        001027b6 f0              ??         F0h
        001027b7 9f              ??         9Fh
        001027b8 9f              ??         9Fh
        001027b9 a5              ??         A5h
        001027ba e2              ??         E2h
        001027bb ac              ??         ACh
        001027bc 9b              ??         9Bh
        001027bd e2              ??         E2h
        001027be ac              ??         ACh
        001027bf 9b              ??         9Bh
        001027c0 f0              ??         F0h
        001027c1 9f              ??         9Fh
        001027c2 9f              ??         9Fh
        001027c3 a5              ??         A5h
        001027c4 e2              ??         E2h
        001027c5 ac              ??         ACh
        001027c6 9b              ??         9Bh
        001027c7 e2              ??         E2h
        001027c8 ac              ??         ACh
        001027c9 9c              ??         9Ch
        001027ca e2              ??         E2h
        001027cb ac              ??         ACh
        001027cc 9c              ??         9Ch
        001027cd e2              ??         E2h
        001027ce ac              ??         ACh
        001027cf 9b              ??         9Bh
        001027d0 e2              ??         E2h
        001027d1 ac              ??         ACh
        001027d2 9b              ??         9Bh
        001027d3 0a              ??         0Ah
        001027d4 e2              ??         E2h
        001027d5 ac              ??         ACh
        001027d6 9c              ??         9Ch
        001027d7 e2              ??         E2h
        001027d8 ac              ??         ACh
        001027d9 9b              ??         9Bh
        001027da e2              ??         E2h
        001027db ac              ??         ACh
        001027dc 9b              ??         9Bh
        001027dd e2              ??         E2h
        001027de ac              ??         ACh
        001027df 9b              ??         9Bh
        001027e0 e2              ??         E2h
        001027e1 ac              ??         ACh
        001027e2 9b              ??         9Bh
        001027e3 e2              ??         E2h
        001027e4 ac              ??         ACh
        001027e5 9b              ??         9Bh
        001027e6 e2              ??         E2h
        001027e7 ac              ??         ACh
        001027e8 9c              ??         9Ch
        001027e9 e2              ??         E2h
        001027ea ac              ??         ACh
        001027eb 9b              ??         9Bh
        001027ec f0              ??         F0h
        001027ed 9f              ??         9Fh
        001027ee 9f              ??         9Fh
        001027ef a6              ??         A6h
        001027f0 e2              ??         E2h
        001027f1 ac              ??         ACh
        001027f2 9b              ??         9Bh
        001027f3 e2              ??         E2h
        001027f4 ac              ??         ACh
        001027f5 9b              ??         9Bh
        001027f6 f0              ??         F0h
        001027f7 9f              ??         9Fh
        001027f8 9f              ??         9Fh
        001027f9 a6              ??         A6h
        001027fa e2              ??         E2h
        001027fb ac              ??         ACh
        001027fc 9b              ??         9Bh
        001027fd e2              ??         E2h
        001027fe ac              ??         ACh
        001027ff 9b              ??         9Bh
        00102800 e2              ??         E2h
        00102801 ac              ??         ACh
        00102802 9b              ??         9Bh
        00102803 e2              ??         E2h
        00102804 ac              ??         ACh
        00102805 9b              ??         9Bh
        00102806 f0              ??         F0h
        00102807 9f              ??         9Fh
        00102808 9f              ??         9Fh
        00102809 a6              ??         A6h
        0010280a e2              ??         E2h
        0010280b ac              ??         ACh
        0010280c 9b              ??         9Bh
        0010280d e2              ??         E2h
        0010280e ac              ??         ACh
        0010280f 9b              ??         9Bh
        00102810 f0              ??         F0h
        00102811 9f              ??         9Fh
        00102812 9f              ??         9Fh
        00102813 a6              ??         A6h
        00102814 e2              ??         E2h
        00102815 ac              ??         ACh
        00102816 9b              ??         9Bh
        00102817 e2              ??         E2h
        00102818 ac              ??         ACh
        00102819 9c              ??         9Ch
        0010281a e2              ??         E2h
        0010281b ac              ??         ACh
        0010281c 9b              ??         9Bh
        0010281d e2              ??         E2h
        0010281e ac              ??         ACh
        0010281f 9b              ??         9Bh
        00102820 e2              ??         E2h
        00102821 ac              ??         ACh
        00102822 9b              ??         9Bh
        00102823 e2              ??         E2h
        00102824 ac              ??         ACh
        00102825 9b              ??         9Bh
        00102826 e2              ??         E2h
        00102827 ac              ??         ACh
        00102828 9b              ??         9Bh
        00102829 e2              ??         E2h
        0010282a ac              ??         ACh
        0010282b 9c              ??         9Ch
        0010282c 0a              ??         0Ah
        0010282d e2              ??         E2h
        0010282e ac              ??         ACh
        0010282f 9b              ??         9Bh
        00102830 f0              ??         F0h
        00102831 9f              ??         9Fh
        00102832 9f              ??         9Fh
        00102833 a6              ??         A6h
        00102834 f0              ??         F0h
        00102835 9f              ??         9Fh
        00102836 9f              ??         9Fh
        00102837 a6              ??         A6h
        00102838 f0              ??         F0h
        00102839 9f              ??         9Fh
        0010283a 9f              ??         9Fh
        0010283b a6              ??         A6h
        0010283c f0              ??         F0h
        0010283d 9f              ??         9Fh
        0010283e 9f              ??         9Fh
        0010283f a6              ??         A6h
        00102840 f0              ??         F0h
        00102841 9f              ??         9Fh
        00102842 9f              ??         9Fh
        00102843 a6              ??         A6h
        00102844 e2              ??         E2h
        00102845 ac              ??         ACh
        00102846 9b              ??         9Bh
        00102847 f0              ??         F0h
        00102848 9f              ??         9Fh
        00102849 9f              ??         9Fh
        0010284a a6              ??         A6h
        0010284b f0              ??         F0h
        0010284c 9f              ??         9Fh
        0010284d 9f              ??         9Fh
        0010284e a6              ??         A6h
        0010284f f0              ??         F0h
        00102850 9f              ??         9Fh
        00102851 9f              ??         9Fh
        00102852 a5              ??         A5h
        00102853 f0              ??         F0h
        00102854 9f              ??         9Fh
        00102855 9f              ??         9Fh
        00102856 a5              ??         A5h
        00102857 f0              ??         F0h
        00102858 9f              ??         9Fh
        00102859 9f              ??         9Fh
        0010285a a5              ??         A5h
        0010285b f0              ??         F0h
        0010285c 9f              ??         9Fh
        0010285d 9f              ??         9Fh
        0010285e a6              ??         A6h
        0010285f e2              ??         E2h
        00102860 ac              ??         ACh
        00102861 9b              ??         9Bh
        00102862 e2              ??         E2h
        00102863 ac              ??         ACh
        00102864 9b              ??         9Bh
        00102865 f0              ??         F0h
        00102866 9f              ??         9Fh
        00102867 9f              ??         9Fh
        00102868 a6              ??         A6h
        00102869 f0              ??         F0h
        0010286a 9f              ??         9Fh
        0010286b 9f              ??         9Fh
        0010286c a5              ??         A5h
        0010286d f0              ??         F0h
        0010286e 9f              ??         9Fh
        0010286f 9f              ??         9Fh
        00102870 a5              ??         A5h
        00102871 f0              ??         F0h
        00102872 9f              ??         9Fh
        00102873 9f              ??         9Fh
        00102874 a5              ??         A5h
        00102875 f0              ??         F0h
        00102876 9f              ??         9Fh
        00102877 9f              ??         9Fh
        00102878 a6              ??         A6h
        00102879 f0              ??         F0h
        0010287a 9f              ??         9Fh
        0010287b 9f              ??         9Fh
        0010287c a6              ??         A6h
        0010287d e2              ??         E2h
        0010287e ac              ??         ACh
        0010287f 9b              ??         9Bh
        00102880 f0              ??         F0h
        00102881 9f              ??         9Fh
        00102882 9f              ??         9Fh
        00102883 a6              ??         A6h
        00102884 f0              ??         F0h
        00102885 9f              ??         9Fh
        00102886 9f              ??         9Fh
        00102887 a6              ??         A6h
        00102888 f0              ??         F0h
        00102889 9f              ??         9Fh
        0010288a 9f              ??         9Fh
        0010288b a6              ??         A6h
        0010288c f0              ??         F0h
        0010288d 9f              ??         9Fh
        0010288e 9f              ??         9Fh
        0010288f a6              ??         A6h
        00102890 f0              ??         F0h
        00102891 9f              ??         9Fh
        00102892 9f              ??         9Fh
        00102893 a6              ??         A6h
        00102894 e2              ??         E2h
        00102895 ac              ??         ACh
        00102896 9b              ??         9Bh
        00102897 0a              ??         0Ah
        00102898 e2              ??         E2h
        00102899 ac              ??         ACh
        0010289a 9b              ??         9Bh
        0010289b f0              ??         F0h
        0010289c 9f              ??         9Fh
        0010289d 9f              ??         9Fh
        0010289e a6              ??         A6h
        0010289f f0              ??         F0h
        001028a0 9f              ??         9Fh
        001028a1 9f              ??         9Fh
        001028a2 a6              ??         A6h
        001028a3 f0              ??         F0h
        001028a4 9f              ??         9Fh
        001028a5 9f              ??         9Fh
        001028a6 a6              ??         A6h
        001028a7 f0              ??         F0h
        001028a8 9f              ??         9Fh
        001028a9 9f              ??         9Fh
        001028aa a6              ??         A6h
        001028ab f0              ??         F0h
        001028ac 9f              ??         9Fh
        001028ad 9f              ??         9Fh
        001028ae a6              ??         A6h
        001028af e2              ??         E2h
        001028b0 ac              ??         ACh
        001028b1 9b              ??         9Bh
        001028b2 f0              ??         F0h
        001028b3 9f              ??         9Fh
        001028b4 9f              ??         9Fh
        001028b5 a6              ??         A6h
        001028b6 f0              ??         F0h
        001028b7 9f              ??         9Fh
        001028b8 9f              ??         9Fh
        001028b9 a5              ??         A5h
        001028ba f0              ??         F0h
        001028bb 9f              ??         9Fh
        001028bc 9f              ??         9Fh
        001028bd a5              ??         A5h
        001028be f0              ??         F0h
        001028bf 9f              ??         9Fh
        001028c0 9f              ??         9Fh
        001028c1 a5              ??         A5h
        001028c2 f0              ??         F0h
        001028c3 9f              ??         9Fh
        001028c4 9f              ??         9Fh
        001028c5 a5              ??         A5h
        001028c6 f0              ??         F0h
        001028c7 9f              ??         9Fh
        001028c8 9f              ??         9Fh
        001028c9 a5              ??         A5h
        001028ca e2              ??         E2h
        001028cb ac              ??         ACh
        001028cc 9b              ??         9Bh
        001028cd e2              ??         E2h
        001028ce ac              ??         ACh
        001028cf 9b              ??         9Bh
        001028d0 f0              ??         F0h
        001028d1 9f              ??         9Fh
        001028d2 9f              ??         9Fh
        001028d3 a5              ??         A5h
        001028d4 f0              ??         F0h
        001028d5 9f              ??         9Fh
        001028d6 9f              ??         9Fh
        001028d7 a5              ??         A5h
        001028d8 f0              ??         F0h
        001028d9 9f              ??         9Fh
        001028da 9f              ??         9Fh
        001028db a5              ??         A5h
        001028dc f0              ??         F0h
        001028dd 9f              ??         9Fh
        001028de 9f              ??         9Fh
        001028df a5              ??         A5h
        001028e0 f0              ??         F0h
        001028e1 9f              ??         9Fh
        001028e2 9f              ??         9Fh
        001028e3 a5              ??         A5h
        001028e4 f0              ??         F0h
        001028e5 9f              ??         9Fh
        001028e6 9f              ??         9Fh
        001028e7 a6              ??         A6h
        001028e8 e2              ??         E2h
        001028e9 ac              ??         ACh
        001028ea 9b              ??         9Bh
        001028eb f0              ??         F0h
        001028ec 9f              ??         9Fh
        001028ed 9f              ??         9Fh
        001028ee a6              ??         A6h
        001028ef f0              ??         F0h
        001028f0 9f              ??         9Fh
        001028f1 9f              ??         9Fh
        001028f2 a6              ??         A6h
        001028f3 f0              ??         F0h
        001028f4 9f              ??         9Fh
        001028f5 9f              ??         9Fh
        001028f6 a6              ??         A6h
        001028f7 f0              ??         F0h
        001028f8 9f              ??         9Fh
        001028f9 9f              ??         9Fh
        001028fa a6              ??         A6h
        001028fb f0              ??         F0h
        001028fc 9f              ??         9Fh
        001028fd 9f              ??         9Fh
        001028fe a6              ??         A6h
        001028ff e2              ??         E2h
        00102900 ac              ??         ACh
        00102901 9b              ??         9Bh
        00102902 0a              ??         0Ah
        00102903 e2              ??         E2h
        00102904 ac              ??         ACh
        00102905 9b              ??         9Bh
        00102906 f0              ??         F0h
        00102907 9f              ??         9Fh
        00102908 9f              ??         9Fh
        00102909 a6              ??         A6h
        0010290a f0              ??         F0h
        0010290b 9f              ??         9Fh
        0010290c 9f              ??         9Fh
        0010290d a6              ??         A6h
        0010290e f0              ??         F0h
        0010290f 9f              ??         9Fh
        00102910 9f              ??         9Fh
        00102911 a6              ??         A6h
        00102912 f0              ??         F0h
        00102913 9f              ??         9Fh
        00102914 9f              ??         9Fh
        00102915 a6              ??         A6h
        00102916 f0              ??         F0h
        00102917 9f              ??         9Fh
        00102918 9f              ??         9Fh
        00102919 a6              ??         A6h
        0010291a e2              ??         E2h
        0010291b ac              ??         ACh
        0010291c 9b              ??         9Bh
        0010291d f0              ??         F0h
        0010291e 9f              ??         9Fh
        0010291f 9f              ??         9Fh
        00102920 a6              ??         A6h
        00102921 f0              ??         F0h
        00102922 9f              ??         9Fh
        00102923 9f              ??         9Fh
        00102924 a5              ??         A5h
        00102925 f0              ??         F0h
        00102926 9f              ??         9Fh
        00102927 9f              ??         9Fh
        00102928 a5              ??         A5h
        00102929 f0              ??         F0h
        0010292a 9f              ??         9Fh
        0010292b 9f              ??         9Fh
        0010292c a5              ??         A5h
        0010292d f0              ??         F0h
        0010292e 9f              ??         9Fh
        0010292f 9f              ??         9Fh
        00102930 a5              ??         A5h
        00102931 f0              ??         F0h
        00102932 9f              ??         9Fh
        00102933 9f              ??         9Fh
        00102934 a5              ??         A5h
        00102935 e2              ??         E2h
        00102936 ac              ??         ACh
        00102937 9b              ??         9Bh
        00102938 e2              ??         E2h
        00102939 ac              ??         ACh
        0010293a 9b              ??         9Bh
        0010293b f0              ??         F0h
        0010293c 9f              ??         9Fh
        0010293d 9f              ??         9Fh
        0010293e a5              ??         A5h
        0010293f f0              ??         F0h
        00102940 9f              ??         9Fh
        00102941 9f              ??         9Fh
        00102942 a5              ??         A5h
        00102943 f0              ??         F0h
        00102944 9f              ??         9Fh
        00102945 9f              ??         9Fh
        00102946 a5              ??         A5h
        00102947 f0              ??         F0h
        00102948 9f              ??         9Fh
        00102949 9f              ??         9Fh
        0010294a a5              ??         A5h
        0010294b f0              ??         F0h
        0010294c 9f              ??         9Fh
        0010294d 9f              ??         9Fh
        0010294e a5              ??         A5h
        0010294f f0              ??         F0h
        00102950 9f              ??         9Fh
        00102951 9f              ??         9Fh
        00102952 a6              ??         A6h
        00102953 e2              ??         E2h
        00102954 ac              ??         ACh
        00102955 9b              ??         9Bh
        00102956 f0              ??         F0h
        00102957 9f              ??         9Fh
        00102958 9f              ??         9Fh
        00102959 a6              ??         A6h
        0010295a f0              ??         F0h
        0010295b 9f              ??         9Fh
        0010295c 9f              ??         9Fh
        0010295d a6              ??         A6h
        0010295e f0              ??         F0h
        0010295f 9f              ??         9Fh
        00102960 9f              ??         9Fh
        00102961 a6              ??         A6h
        00102962 f0              ??         F0h
        00102963 9f              ??         9Fh
        00102964 9f              ??         9Fh
        00102965 a6              ??         A6h
        00102966 f0              ??         F0h
        00102967 9f              ??         9Fh
        00102968 9f              ??         9Fh
        00102969 a6              ??         A6h
        0010296a e2              ??         E2h
        0010296b ac              ??         ACh
        0010296c 9b              ??         9Bh
        0010296d 0a              ??         0Ah
        0010296e e2              ??         E2h
        0010296f ac              ??         ACh
        00102970 9b              ??         9Bh
        00102971 f0              ??         F0h
        00102972 9f              ??         9Fh
        00102973 9f              ??         9Fh
        00102974 a6              ??         A6h
        00102975 f0              ??         F0h
        00102976 9f              ??         9Fh
        00102977 9f              ??         9Fh
        00102978 a6              ??         A6h
        00102979 f0              ??         F0h
        0010297a 9f              ??         9Fh
        0010297b 9f              ??         9Fh
        0010297c a6              ??         A6h
        0010297d f0              ??         F0h
        0010297e 9f              ??         9Fh
        0010297f 9f              ??         9Fh
        00102980 a6              ??         A6h
        00102981 f0              ??         F0h
        00102982 9f              ??         9Fh
        00102983 9f              ??         9Fh
        00102984 a6              ??         A6h
        00102985 e2              ??         E2h
        00102986 ac              ??         ACh
        00102987 9b              ??         9Bh
        00102988 f0              ??         F0h
        00102989 9f              ??         9Fh
        0010298a 9f              ??         9Fh
        0010298b a6              ??         A6h
        0010298c f0              ??         F0h
        0010298d 9f              ??         9Fh
        0010298e 9f              ??         9Fh
        0010298f a5              ??         A5h
        00102990 f0              ??         F0h
        00102991 9f              ??         9Fh
        00102992 9f              ??         9Fh
        00102993 a5              ??         A5h
        00102994 f0              ??         F0h
        00102995 9f              ??         9Fh
        00102996 9f              ??         9Fh
        00102997 a5              ??         A5h
        00102998 f0              ??         F0h
        00102999 9f              ??         9Fh
        0010299a 9f              ??         9Fh
        0010299b a5              ??         A5h
        0010299c f0              ??         F0h
        0010299d 9f              ??         9Fh
        0010299e 9f              ??         9Fh
        0010299f a5              ??         A5h
        001029a0 e2              ??         E2h
        001029a1 ac              ??         ACh
        001029a2 9b              ??         9Bh
        001029a3 e2              ??         E2h
        001029a4 ac              ??         ACh
        001029a5 9b              ??         9Bh
        001029a6 f0              ??         F0h
        001029a7 9f              ??         9Fh
        001029a8 9f              ??         9Fh
        001029a9 a5              ??         A5h
        001029aa f0              ??         F0h
        001029ab 9f              ??         9Fh
        001029ac 9f              ??         9Fh
        001029ad a5              ??         A5h
        001029ae f0              ??         F0h
        001029af 9f              ??         9Fh
        001029b0 9f              ??         9Fh
        001029b1 a5              ??         A5h
        001029b2 f0              ??         F0h
        001029b3 9f              ??         9Fh
        001029b4 9f              ??         9Fh
        001029b5 a5              ??         A5h
        001029b6 f0              ??         F0h
        001029b7 9f              ??         9Fh
        001029b8 9f              ??         9Fh
        001029b9 a5              ??         A5h
        001029ba f0              ??         F0h
        001029bb 9f              ??         9Fh
        001029bc 9f              ??         9Fh
        001029bd a6              ??         A6h
        001029be e2              ??         E2h
        001029bf ac              ??         ACh
        001029c0 9b              ??         9Bh
        001029c1 f0              ??         F0h
        001029c2 9f              ??         9Fh
        001029c3 9f              ??         9Fh
        001029c4 a6              ??         A6h
        001029c5 f0              ??         F0h
        001029c6 9f              ??         9Fh
        001029c7 9f              ??         9Fh
        001029c8 a6              ??         A6h
        001029c9 f0              ??         F0h
        001029ca 9f              ??         9Fh
        001029cb 9f              ??         9Fh
        001029cc a6              ??         A6h
        001029cd f0              ??         F0h
        001029ce 9f              ??         9Fh
        001029cf 9f              ??         9Fh
        001029d0 a6              ??         A6h
        001029d1 f0              ??         F0h
        001029d2 9f              ??         9Fh
        001029d3 9f              ??         9Fh
        001029d4 a6              ??         A6h
        001029d5 e2              ??         E2h
        001029d6 ac              ??         ACh
        001029d7 9b              ??         9Bh
        001029d8 0a              ??         0Ah
        001029d9 e2              ??         E2h
        001029da ac              ??         ACh
        001029db 9b              ??         9Bh
        001029dc f0              ??         F0h
        001029dd 9f              ??         9Fh
        001029de 9f              ??         9Fh
        001029df a6              ??         A6h
        001029e0 f0              ??         F0h
        001029e1 9f              ??         9Fh
        001029e2 9f              ??         9Fh
        001029e3 a6              ??         A6h
        001029e4 f0              ??         F0h
        001029e5 9f              ??         9Fh
        001029e6 9f              ??         9Fh
        001029e7 a6              ??         A6h
        001029e8 f0              ??         F0h
        001029e9 9f              ??         9Fh
        001029ea 9f              ??         9Fh
        001029eb a6              ??         A6h
        001029ec f0              ??         F0h
        001029ed 9f              ??         9Fh
        001029ee 9f              ??         9Fh
        001029ef a6              ??         A6h
        001029f0 e2              ??         E2h
        001029f1 ac              ??         ACh
        001029f2 9b              ??         9Bh
        001029f3 e2              ??         E2h
        001029f4 ac              ??         ACh
        001029f5 9b              ??         9Bh
        001029f6 e2              ??         E2h
        001029f7 ac              ??         ACh
        001029f8 9c              ??         9Ch
        001029f9 e2              ??         E2h
        001029fa ac              ??         ACh
        001029fb 9c              ??         9Ch
        001029fc e2              ??         E2h
        001029fd ac              ??         ACh
        001029fe 9c              ??         9Ch
        001029ff e2              ??         E2h
        00102a00 ac              ??         ACh
        00102a01 9c              ??         9Ch
        00102a02 e2              ??         E2h
        00102a03 ac              ??         ACh
        00102a04 9c              ??         9Ch
        00102a05 e2              ??         E2h
        00102a06 ac              ??         ACh
        00102a07 9b              ??         9Bh
        00102a08 e2              ??         E2h
        00102a09 ac              ??         ACh
        00102a0a 9b              ??         9Bh
        00102a0b e2              ??         E2h
        00102a0c ac              ??         ACh
        00102a0d 9c              ??         9Ch
        00102a0e e2              ??         E2h
        00102a0f ac              ??         ACh
        00102a10 9c              ??         9Ch
        00102a11 e2              ??         E2h
        00102a12 ac              ??         ACh
        00102a13 9c              ??         9Ch
        00102a14 e2              ??         E2h
        00102a15 ac              ??         ACh
        00102a16 9c              ??         9Ch
        00102a17 e2              ??         E2h
        00102a18 ac              ??         ACh
        00102a19 9c              ??         9Ch
        00102a1a e2              ??         E2h
        00102a1b ac              ??         ACh
        00102a1c 9b              ??         9Bh
        00102a1d e2              ??         E2h
        00102a1e ac              ??         ACh
        00102a1f 9b              ??         9Bh
        00102a20 f0              ??         F0h
        00102a21 9f              ??         9Fh
        00102a22 9f              ??         9Fh
        00102a23 a6              ??         A6h
        00102a24 f0              ??         F0h
        00102a25 9f              ??         9Fh
        00102a26 9f              ??         9Fh
        00102a27 a6              ??         A6h
        00102a28 f0              ??         F0h
        00102a29 9f              ??         9Fh
        00102a2a 9f              ??         9Fh
        00102a2b a6              ??         A6h
        00102a2c f0              ??         F0h
        00102a2d 9f              ??         9Fh
        00102a2e 9f              ??         9Fh
        00102a2f a6              ??         A6h
        00102a30 f0              ??         F0h
        00102a31 9f              ??         9Fh
        00102a32 9f              ??         9Fh
        00102a33 a6              ??         A6h
        00102a34 e2              ??         E2h
        00102a35 ac              ??         ACh
        00102a36 9b              ??         9Bh
        00102a37 0a              ??         0Ah
        00102a38 e2              ??         E2h
        00102a39 ac              ??         ACh
        00102a3a 9b              ??         9Bh
        00102a3b e2              ??         E2h
        00102a3c ac              ??         ACh
        00102a3d 9b              ??         9Bh
        00102a3e f0              ??         F0h
        00102a3f 9f              ??         9Fh
        00102a40 9f              ??         9Fh
        00102a41 a6              ??         A6h
        00102a42 f0              ??         F0h
        00102a43 9f              ??         9Fh
        00102a44 9f              ??         9Fh
        00102a45 a6              ??         A6h
        00102a46 f0              ??         F0h
        00102a47 9f              ??         9Fh
        00102a48 9f              ??         9Fh
        00102a49 a6              ??         A6h
        00102a4a f0              ??         F0h
        00102a4b 9f              ??         9Fh
        00102a4c 9f              ??         9Fh
        00102a4d a6              ??         A6h
        00102a4e e2              ??         E2h
        00102a4f ac              ??         ACh
        00102a50 9b              ??         9Bh
        00102a51 f0              ??         F0h
        00102a52 9f              ??         9Fh
        00102a53 9f              ??         9Fh
        00102a54 a5              ??         A5h
        00102a55 e2              ??         E2h
        00102a56 ac              ??         ACh
        00102a57 9c              ??         9Ch
        00102a58 f0              ??         F0h
        00102a59 9f              ??         9Fh
        00102a5a 9f              ??         9Fh
        00102a5b a5              ??         A5h
        00102a5c f0              ??         F0h
        00102a5d 9f              ??         9Fh
        00102a5e 9f              ??         9Fh
        00102a5f a5              ??         A5h
        00102a60 f0              ??         F0h
        00102a61 9f              ??         9Fh
        00102a62 9f              ??         9Fh
        00102a63 a5              ??         A5h
        00102a64 f0              ??         F0h
        00102a65 9f              ??         9Fh
        00102a66 9f              ??         9Fh
        00102a67 a5              ??         A5h
        00102a68 e2              ??         E2h
        00102a69 ac              ??         ACh
        00102a6a 9b              ??         9Bh
        00102a6b e2              ??         E2h
        00102a6c ac              ??         ACh
        00102a6d 9b              ??         9Bh
        00102a6e f0              ??         F0h
        00102a6f 9f              ??         9Fh
        00102a70 9f              ??         9Fh
        00102a71 a5              ??         A5h
        00102a72 f0              ??         F0h
        00102a73 9f              ??         9Fh
        00102a74 9f              ??         9Fh
        00102a75 a5              ??         A5h
        00102a76 f0              ??         F0h
        00102a77 9f              ??         9Fh
        00102a78 9f              ??         9Fh
        00102a79 a5              ??         A5h
        00102a7a f0              ??         F0h
        00102a7b 9f              ??         9Fh
        00102a7c 9f              ??         9Fh
        00102a7d a5              ??         A5h
        00102a7e e2              ??         E2h
        00102a7f ac              ??         ACh
        00102a80 9c              ??         9Ch
        00102a81 f0              ??         F0h
        00102a82 9f              ??         9Fh
        00102a83 9f              ??         9Fh
        00102a84 a5              ??         A5h
        00102a85 e2              ??         E2h
        00102a86 ac              ??         ACh
        00102a87 9b              ??         9Bh
        00102a88 f0              ??         F0h
        00102a89 9f              ??         9Fh
        00102a8a 9f              ??         9Fh
        00102a8b a6              ??         A6h
        00102a8c f0              ??         F0h
        00102a8d 9f              ??         9Fh
        00102a8e 9f              ??         9Fh
        00102a8f a6              ??         A6h
        00102a90 f0              ??         F0h
        00102a91 9f              ??         9Fh
        00102a92 9f              ??         9Fh
        00102a93 a6              ??         A6h
        00102a94 f0              ??         F0h
        00102a95 9f              ??         9Fh
        00102a96 9f              ??         9Fh
        00102a97 a6              ??         A6h
        00102a98 e2              ??         E2h
        00102a99 ac              ??         ACh
        00102a9a 9b              ??         9Bh
        00102a9b e2              ??         E2h
        00102a9c ac              ??         ACh
        00102a9d 9b              ??         9Bh
        00102a9e 0a              ??         0Ah
        00102a9f e2              ??         E2h
        00102aa0 ac              ??         ACh
        00102aa1 9c              ??         9Ch
        00102aa2 e2              ??         E2h
        00102aa3 ac              ??         ACh
        00102aa4 9b              ??         9Bh
        00102aa5 f0              ??         F0h
        00102aa6 9f              ??         9Fh
        00102aa7 9f              ??         9Fh
        00102aa8 a6              ??         A6h
        00102aa9 f0              ??         F0h
        00102aaa 9f              ??         9Fh
        00102aab 9f              ??         9Fh
        00102aac a6              ??         A6h
        00102aad f0              ??         F0h
        00102aae 9f              ??         9Fh
        00102aaf 9f              ??         9Fh
        00102ab0 a6              ??         A6h
        00102ab1 f0              ??         F0h
        00102ab2 9f              ??         9Fh
        00102ab3 9f              ??         9Fh
        00102ab4 a6              ??         A6h
        00102ab5 e2              ??         E2h
        00102ab6 ac              ??         ACh
        00102ab7 9b              ??         9Bh
        00102ab8 e2              ??         E2h
        00102ab9 ac              ??         ACh
        00102aba 9c              ??         9Ch
        00102abb e2              ??         E2h
        00102abc ac              ??         ACh
        00102abd 9c              ??         9Ch
        00102abe f0              ??         F0h
        00102abf 9f              ??         9Fh
        00102ac0 9f              ??         9Fh
        00102ac1 a5              ??         A5h
        00102ac2 f0              ??         F0h
        00102ac3 9f              ??         9Fh
        00102ac4 9f              ??         9Fh
        00102ac5 a5              ??         A5h
        00102ac6 f0              ??         F0h
        00102ac7 9f              ??         9Fh
        00102ac8 9f              ??         9Fh
        00102ac9 a5              ??         A5h
        00102aca f0              ??         F0h
        00102acb 9f              ??         9Fh
        00102acc 9f              ??         9Fh
        00102acd a5              ??         A5h
        00102ace e2              ??         E2h
        00102acf ac              ??         ACh
        00102ad0 9b              ??         9Bh
        00102ad1 e2              ??         E2h
        00102ad2 ac              ??         ACh
        00102ad3 9b              ??         9Bh
        00102ad4 f0              ??         F0h
        00102ad5 9f              ??         9Fh
        00102ad6 9f              ??         9Fh
        00102ad7 a5              ??         A5h
        00102ad8 f0              ??         F0h
        00102ad9 9f              ??         9Fh
        00102ada 9f              ??         9Fh
        00102adb a5              ??         A5h
        00102adc f0              ??         F0h
        00102add 9f              ??         9Fh
        00102ade 9f              ??         9Fh
        00102adf a5              ??         A5h
        00102ae0 f0              ??         F0h
        00102ae1 9f              ??         9Fh
        00102ae2 9f              ??         9Fh
        00102ae3 a5              ??         A5h
        00102ae4 e2              ??         E2h
        00102ae5 ac              ??         ACh
        00102ae6 9c              ??         9Ch
        00102ae7 e2              ??         E2h
        00102ae8 ac              ??         ACh
        00102ae9 9c              ??         9Ch
        00102aea e2              ??         E2h
        00102aeb ac              ??         ACh
        00102aec 9b              ??         9Bh
        00102aed f0              ??         F0h
        00102aee 9f              ??         9Fh
        00102aef 9f              ??         9Fh
        00102af0 a6              ??         A6h
        00102af1 f0              ??         F0h
        00102af2 9f              ??         9Fh
        00102af3 9f              ??         9Fh
        00102af4 a6              ??         A6h
        00102af5 f0              ??         F0h
        00102af6 9f              ??         9Fh
        00102af7 9f              ??         9Fh
        00102af8 a6              ??         A6h
        00102af9 f0              ??         F0h
        00102afa 9f              ??         9Fh
        00102afb 9f              ??         9Fh
        00102afc a6              ??         A6h
        00102afd e2              ??         E2h
        00102afe ac              ??         ACh
        00102aff 9b              ??         9Bh
        00102b00 e2              ??         E2h
        00102b01 ac              ??         ACh
        00102b02 9c              ??         9Ch
        00102b03 0a              ??         0Ah
        00102b04 e2              ??         E2h
        00102b05 ac              ??         ACh
        00102b06 9c              ??         9Ch
        00102b07 e2              ??         E2h
        00102b08 ac              ??         ACh
        00102b09 9b              ??         9Bh
        00102b0a f0              ??         F0h
        00102b0b 9f              ??         9Fh
        00102b0c 9f              ??         9Fh
        00102b0d a6              ??         A6h
        00102b0e f0              ??         F0h
        00102b0f 9f              ??         9Fh
        00102b10 9f              ??         9Fh
        00102b11 a6              ??         A6h
        00102b12 f0              ??         F0h
        00102b13 9f              ??         9Fh
        00102b14 9f              ??         9Fh
        00102b15 a6              ??         A6h
        00102b16 f0              ??         F0h
        00102b17 9f              ??         9Fh
        00102b18 9f              ??         9Fh
        00102b19 a6              ??         A6h
        00102b1a e2              ??         E2h
        00102b1b ac              ??         ACh
        00102b1c 9b              ??         9Bh
        00102b1d e2              ??         E2h
        00102b1e ac              ??         ACh
        00102b1f 9c              ??         9Ch
        00102b20 f0              ??         F0h
        00102b21 9f              ??         9Fh
        00102b22 9f              ??         9Fh
        00102b23 a5              ??         A5h
        00102b24 f0              ??         F0h
        00102b25 9f              ??         9Fh
        00102b26 9f              ??         9Fh
        00102b27 a5              ??         A5h
        00102b28 f0              ??         F0h
        00102b29 9f              ??         9Fh
        00102b2a 9f              ??         9Fh
        00102b2b a5              ??         A5h
        00102b2c f0              ??         F0h
        00102b2d 9f              ??         9Fh
        00102b2e 9f              ??         9Fh
        00102b2f a5              ??         A5h
        00102b30 f0              ??         F0h
        00102b31 9f              ??         9Fh
        00102b32 9f              ??         9Fh
        00102b33 a5              ??         A5h
        00102b34 f0              ??         F0h
        00102b35 9f              ??         9Fh
        00102b36 9f              ??         9Fh
        00102b37 a5              ??         A5h
        00102b38 f0              ??         F0h
        00102b39 9f              ??         9Fh
        00102b3a 9f              ??         9Fh
        00102b3b a5              ??         A5h
        00102b3c f0              ??         F0h
        00102b3d 9f              ??         9Fh
        00102b3e 9f              ??         9Fh
        00102b3f a5              ??         A5h
        00102b40 f0              ??         F0h
        00102b41 9f              ??         9Fh
        00102b42 9f              ??         9Fh
        00102b43 a5              ??         A5h
        00102b44 f0              ??         F0h
        00102b45 9f              ??         9Fh
        00102b46 9f              ??         9Fh
        00102b47 a5              ??         A5h
        00102b48 f0              ??         F0h
        00102b49 9f              ??         9Fh
        00102b4a 9f              ??         9Fh
        00102b4b a5              ??         A5h
        00102b4c f0              ??         F0h
        00102b4d 9f              ??         9Fh
        00102b4e 9f              ??         9Fh
        00102b4f a5              ??         A5h
        00102b50 e2              ??         E2h
        00102b51 ac              ??         ACh
        00102b52 9c              ??         9Ch
        00102b53 e2              ??         E2h
        00102b54 ac              ??         ACh
        00102b55 9b              ??         9Bh
        00102b56 f0              ??         F0h
        00102b57 9f              ??         9Fh
        00102b58 9f              ??         9Fh
        00102b59 a6              ??         A6h
        00102b5a f0              ??         F0h
        00102b5b 9f              ??         9Fh
        00102b5c 9f              ??         9Fh
        00102b5d a6              ??         A6h
        00102b5e f0              ??         F0h
        00102b5f 9f              ??         9Fh
        00102b60 9f              ??         9Fh
        00102b61 a6              ??         A6h
        00102b62 f0              ??         F0h
        00102b63 9f              ??         9Fh
        00102b64 9f              ??         9Fh
        00102b65 a6              ??         A6h
        00102b66 e2              ??         E2h
        00102b67 ac              ??         ACh
        00102b68 9b              ??         9Bh
        00102b69 e2              ??         E2h
        00102b6a ac              ??         ACh
        00102b6b 9c              ??         9Ch
        00102b6c 0a              ??         0Ah
        00102b6d e2              ??         E2h
        00102b6e ac              ??         ACh
        00102b6f 9c              ??         9Ch
        00102b70 e2              ??         E2h
        00102b71 ac              ??         ACh
        00102b72 9b              ??         9Bh
        00102b73 e2              ??         E2h
        00102b74 ac              ??         ACh
        00102b75 9b              ??         9Bh
        00102b76 e2              ??         E2h
        00102b77 ac              ??         ACh
        00102b78 9b              ??         9Bh
        00102b79 e2              ??         E2h
        00102b7a ac              ??         ACh
        00102b7b 9b              ??         9Bh
        00102b7c e2              ??         E2h
        00102b7d ac              ??         ACh
        00102b7e 9c              ??         9Ch
        00102b7f e2              ??         E2h
        00102b80 ac              ??         ACh
        00102b81 9c              ??         9Ch
        00102b82 e2              ??         E2h
        00102b83 ac              ??         ACh
        00102b84 9b              ??         9Bh
        00102b85 e2              ??         E2h
        00102b86 ac              ??         ACh
        00102b87 9b              ??         9Bh
        00102b88 e2              ??         E2h
        00102b89 ac              ??         ACh
        00102b8a 9b              ??         9Bh
        00102b8b e2              ??         E2h
        00102b8c ac              ??         ACh
        00102b8d 9b              ??         9Bh
        00102b8e e2              ??         E2h
        00102b8f ac              ??         ACh
        00102b90 9b              ??         9Bh
        00102b91 e2              ??         E2h
        00102b92 ac              ??         ACh
        00102b93 9b              ??         9Bh
        00102b94 e2              ??         E2h
        00102b95 ac              ??         ACh
        00102b96 9b              ??         9Bh
        00102b97 e2              ??         E2h
        00102b98 ac              ??         ACh
        00102b99 9b              ??         9Bh
        00102b9a e2              ??         E2h
        00102b9b ac              ??         ACh
        00102b9c 9b              ??         9Bh
        00102b9d e2              ??         E2h
        00102b9e ac              ??         ACh
        00102b9f 9b              ??         9Bh
        00102ba0 e2              ??         E2h
        00102ba1 ac              ??         ACh
        00102ba2 9b              ??         9Bh
        00102ba3 e2              ??         E2h
        00102ba4 ac              ??         ACh
        00102ba5 9b              ??         9Bh
        00102ba6 e2              ??         E2h
        00102ba7 ac              ??         ACh
        00102ba8 9c              ??         9Ch
        00102ba9 e2              ??         E2h
        00102baa ac              ??         ACh
        00102bab 9c              ??         9Ch
        00102bac e2              ??         E2h
        00102bad ac              ??         ACh
        00102bae 9b              ??         9Bh
        00102baf e2              ??         E2h
        00102bb0 ac              ??         ACh
        00102bb1 9b              ??         9Bh
        00102bb2 e2              ??         E2h
        00102bb3 ac              ??         ACh
        00102bb4 9b              ??         9Bh
        00102bb5 e2              ??         E2h
        00102bb6 ac              ??         ACh
        00102bb7 9b              ??         9Bh
        00102bb8 e2              ??         E2h
        00102bb9 ac              ??         ACh
        00102bba 9c              ??         9Ch
        00102bbb e2              ??         E2h
        00102bbc ac              ??         ACh
        00102bbd 9c              ??         9Ch
        00102bbe 0a              ??         0Ah
        00102bbf 00              ??         00h
                             DAT_00102bc0                                    XREF[2]:     rocket:001014cf(*), 
                                                                                          rocket:001014d6(*)  
        00102bc0 1b              ??         1Bh
        00102bc1 5b              ??         5Bh    [
        00102bc2 31              ??         31h    1
        00102bc3 3b              ??         3Bh    ;
        00102bc4 33              ??         33h    3
        00102bc5 37              ??         37h    7
        00102bc6 6d              ??         6Dh    m
        00102bc7 00              ??         00h
                             DAT_00102bc8                                    XREF[2]:     rocket:001014d9(*), 
                                                                                          rocket:001014e0(*)  
        00102bc8 25              ??         25h    %
        00102bc9 73              ??         73h    s
        00102bca 0a              ??         0Ah
        00102bcb 5b              ??         5Bh    [
        00102bcc 21              ??         21h    !
        00102bcd 5d              ??         5Dh    ]
        00102bce 20              ??         20h     
        00102bcf 59              ??         59h    Y
        00102bd0 6f              ??         6Fh    o
        00102bd1 75              ??         75h    u
        00102bd2 20              ??         20h     
        00102bd3 63              ??         63h    c
        00102bd4 68              ??         68h    h
        00102bd5 6f              ??         6Fh    o
        00102bd6 73              ??         73h    s
        00102bd7 65              ??         65h    e
        00102bd8 3a              ??         3Ah    :
        00102bd9 20              ??         20h     
        00102bda 0a              ??         0Ah
        00102bdb 20              ??         20h     
        00102bdc 20              ??         20h     
        00102bdd 20              ??         20h     
        00102bde 20              ??         20h     
        00102bdf 20              ??         20h     
        00102be0 20              ??         20h     
        00102be1 20              ??         20h     
        00102be2 20              ??         20h     
        00102be3 20              ??         20h     
        00102be4 20              ??         20h     
        00102be5 20              ??         20h     
        00102be6 20              ??         20h     
        00102be7 20              ??         20h     
        00102be8 20              ??         20h     
        00102be9 20              ??         20h     
        00102bea 20              ??         20h     
        00102beb 20              ??         20h     
        00102bec 20              ??         20h     
        00102bed 20              ??         20h     
        00102bee 20              ??         20h     
        00102bef 20              ??         20h     
        00102bf0 20              ??         20h     
        00102bf1 20              ??         20h     
        00102bf2 20              ??         20h     
        00102bf3 20              ??         20h     
        00102bf4 20              ??         20h     
        00102bf5 20              ??         20h     
        00102bf6 20              ??         20h     
        00102bf7 20              ??         20h     
        00102bf8 20              ??         20h     
        00102bf9 20              ??         20h     
        00102bfa 20              ??         20h     
        00102bfb 20              ??         20h     
        00102bfc 20              ??         20h     
        00102bfd 20              ??         20h     
        00102bfe 20              ??         20h     
        00102bff 20              ??         20h     
        00102c00 20              ??         20h     
        00102c01 20              ??         20h     
        00102c02 e2              ??         E2h
        00102c03 ac              ??         ACh
        00102c04 9b              ??         9Bh
        00102c05 e2              ??         E2h
        00102c06 ac              ??         ACh
        00102c07 9b              ??         9Bh
        00102c08 e2              ??         E2h
        00102c09 ac              ??         ACh
        00102c0a 9b              ??         9Bh
        00102c0b e2              ??         E2h
        00102c0c ac              ??         ACh
        00102c0d 9b              ??         9Bh
        00102c0e e2              ??         E2h
        00102c0f ac              ??         ACh
        00102c10 9b              ??         9Bh
        00102c11 e2              ??         E2h
        00102c12 ac              ??         ACh
        00102c13 9b              ??         9Bh
        00102c14 e2              ??         E2h
        00102c15 ac              ??         ACh
        00102c16 9b              ??         9Bh
        00102c17 0a              ??         0Ah
        00102c18 20              ??         20h     
        00102c19 20              ??         20h     
        00102c1a 20              ??         20h     
        00102c1b 20              ??         20h     
        00102c1c 20              ??         20h     
        00102c1d 20              ??         20h     
        00102c1e 20              ??         20h     
        00102c1f 20              ??         20h     
        00102c20 20              ??         20h     
        00102c21 20              ??         20h     
        00102c22 20              ??         20h     
        00102c23 20              ??         20h     
        00102c24 20              ??         20h     
        00102c25 20              ??         20h     
        00102c26 20              ??         20h     
        00102c27 20              ??         20h     
        00102c28 20              ??         20h     
        00102c29 20              ??         20h     
        00102c2a 20              ??         20h     
        00102c2b 20              ??         20h     
        00102c2c 20              ??         20h     
        00102c2d 20              ??         20h     
        00102c2e 20              ??         20h     
        00102c2f 20              ??         20h     
        00102c30 20              ??         20h     
        00102c31 20              ??         20h     
        00102c32 20              ??         20h     
        00102c33 20              ??         20h     
        00102c34 20              ??         20h     
        00102c35 20              ??         20h     
        00102c36 20              ??         20h     
        00102c37 20              ??         20h     
        00102c38 20              ??         20h     
        00102c39 e2              ??         E2h
        00102c3a ac              ??         ACh
        00102c3b 9b              ??         9Bh
        00102c3c e2              ??         E2h
        00102c3d ac              ??         ACh
        00102c3e 9b              ??         9Bh
        00102c3f e2              ??         E2h
        00102c40 ac              ??         ACh
        00102c41 9b              ??         9Bh
        00102c42 e2              ??         E2h
        00102c43 ac              ??         ACh
        00102c44 9b              ??         9Bh
        00102c45 e2              ??         E2h
        00102c46 ac              ??         ACh
        00102c47 9b              ??         9Bh
        00102c48 e2              ??         E2h
        00102c49 ac              ??         ACh
        00102c4a 9c              ??         9Ch
        00102c4b e2              ??         E2h
        00102c4c ac              ??         ACh
        00102c4d 9c              ??         9Ch
        00102c4e e2              ??         E2h
        00102c4f ac              ??         ACh
        00102c50 9c              ??         9Ch
        00102c51 e2              ??         E2h
        00102c52 ac              ??         ACh
        00102c53 9c              ??         9Ch
        00102c54 e2              ??         E2h
        00102c55 ac              ??         ACh
        00102c56 9b              ??         9Bh
        00102c57 0a              ??         0Ah
        00102c58 20              ??         20h     
        00102c59 20              ??         20h     
        00102c5a 20              ??         20h     
        00102c5b 20              ??         20h     
        00102c5c 20              ??         20h     
        00102c5d 20              ??         20h     
        00102c5e 20              ??         20h     
        00102c5f 20              ??         20h     
        00102c60 20              ??         20h     
        00102c61 20              ??         20h     
        00102c62 20              ??         20h     
        00102c63 20              ??         20h     
        00102c64 20              ??         20h     
        00102c65 20              ??         20h     
        00102c66 20              ??         20h     
        00102c67 20              ??         20h     
        00102c68 20              ??         20h     
        00102c69 20              ??         20h     
        00102c6a 20              ??         20h     
        00102c6b 20              ??         20h     
        00102c6c 20              ??         20h     
        00102c6d 20              ??         20h     
        00102c6e 20              ??         20h     
        00102c6f 20              ??         20h     
        00102c70 20              ??         20h     
        00102c71 20              ??         20h     
        00102c72 20              ??         20h     
        00102c73 20              ??         20h     
        00102c74 e2              ??         E2h
        00102c75 ac              ??         ACh
        00102c76 9b              ??         9Bh
        00102c77 e2              ??         E2h
        00102c78 ac              ??         ACh
        00102c79 9b              ??         9Bh
        00102c7a e2              ??         E2h
        00102c7b ac              ??         ACh
        00102c7c 9b              ??         9Bh
        00102c7d e2              ??         E2h
        00102c7e ac              ??         ACh
        00102c7f 9b              ??         9Bh
        00102c80 e2              ??         E2h
        00102c81 ac              ??         ACh
        00102c82 9c              ??         9Ch
        00102c83 e2              ??         E2h
        00102c84 ac              ??         ACh
        00102c85 9c              ??         9Ch
        00102c86 e2              ??         E2h
        00102c87 ac              ??         ACh
        00102c88 9c              ??         9Ch
        00102c89 e2              ??         E2h
        00102c8a ac              ??         ACh
        00102c8b 9c              ??         9Ch
        00102c8c e2              ??         E2h
        00102c8d ac              ??         ACh
        00102c8e 9c              ??         9Ch
        00102c8f e2              ??         E2h
        00102c90 ac              ??         ACh
        00102c91 9c              ??         9Ch
        00102c92 e2              ??         E2h
        00102c93 ac              ??         ACh
        00102c94 9c              ??         9Ch
        00102c95 e2              ??         E2h
        00102c96 ac              ??         ACh
        00102c97 9b              ??         9Bh
        00102c98 0a              ??         0Ah
        00102c99 20              ??         20h     
        00102c9a 20              ??         20h     
        00102c9b 20              ??         20h     
        00102c9c 20              ??         20h     
        00102c9d 20              ??         20h     
        00102c9e 20              ??         20h     
        00102c9f 20              ??         20h     
        00102ca0 20              ??         20h     
        00102ca1 20              ??         20h     
        00102ca2 20              ??         20h     
        00102ca3 20              ??         20h     
        00102ca4 20              ??         20h     
        00102ca5 20              ??         20h     
        00102ca6 20              ??         20h     
        00102ca7 20              ??         20h     
        00102ca8 20              ??         20h     
        00102ca9 20              ??         20h     
        00102caa 20              ??         20h     
        00102cab 20              ??         20h     
        00102cac 20              ??         20h     
        00102cad 20              ??         20h     
        00102cae 20              ??         20h     
        00102caf 20              ??         20h     
        00102cb0 20              ??         20h     
        00102cb1 e2              ??         E2h
        00102cb2 ac              ??         ACh
        00102cb3 9b              ??         9Bh
        00102cb4 e2              ??         E2h
        00102cb5 ac              ??         ACh
        00102cb6 9b              ??         9Bh
        00102cb7 e2              ??         E2h
        00102cb8 ac              ??         ACh
        00102cb9 9b              ??         9Bh
        00102cba e2              ??         E2h
        00102cbb ac              ??         ACh
        00102cbc 9c              ??         9Ch
        00102cbd e2              ??         E2h
        00102cbe ac              ??         ACh
        00102cbf 9c              ??         9Ch
        00102cc0 e2              ??         E2h
        00102cc1 ac              ??         ACh
        00102cc2 9c              ??         9Ch
        00102cc3 e2              ??         E2h
        00102cc4 ac              ??         ACh
        00102cc5 9c              ??         9Ch
        00102cc6 e2              ??         E2h
        00102cc7 ac              ??         ACh
        00102cc8 9c              ??         9Ch
        00102cc9 e2              ??         E2h
        00102cca ac              ??         ACh
        00102ccb 9c              ??         9Ch
        00102ccc e2              ??         E2h
        00102ccd ac              ??         ACh
        00102cce 9c              ??         9Ch
        00102ccf e2              ??         E2h
        00102cd0 ac              ??         ACh
        00102cd1 9c              ??         9Ch
        00102cd2 e2              ??         E2h
        00102cd3 ac              ??         ACh
        00102cd4 9c              ??         9Ch
        00102cd5 e2              ??         E2h
        00102cd6 ac              ??         ACh
        00102cd7 9b              ??         9Bh
        00102cd8 e2              ??         E2h
        00102cd9 ac              ??         ACh
        00102cda 9b              ??         9Bh
        00102cdb 0a              ??         0Ah
        00102cdc 20              ??         20h     
        00102cdd 20              ??         20h     
        00102cde 20              ??         20h     
        00102cdf 20              ??         20h     
        00102ce0 20              ??         20h     
        00102ce1 20              ??         20h     
        00102ce2 20              ??         20h     
        00102ce3 20              ??         20h     
        00102ce4 20              ??         20h     
        00102ce5 20              ??         20h     
        00102ce6 20              ??         20h     
        00102ce7 20              ??         20h     
        00102ce8 20              ??         20h     
        00102ce9 20              ??         20h     
        00102cea 20              ??         20h     
        00102ceb 20              ??         20h     
        00102cec 20              ??         20h     
        00102ced 20              ??         20h     
        00102cee 20              ??         20h     
        00102cef 20              ??         20h     
        00102cf0 20              ??         20h     
        00102cf1 20              ??         20h     
        00102cf2 e2              ??         E2h
        00102cf3 ac              ??         ACh
        00102cf4 9b              ??         9Bh
        00102cf5 e2              ??         E2h
        00102cf6 ac              ??         ACh
        00102cf7 9b              ??         9Bh
        00102cf8 e2              ??         E2h
        00102cf9 ac              ??         ACh
        00102cfa 9b              ??         9Bh
        00102cfb e2              ??         E2h
        00102cfc ac              ??         ACh
        00102cfd 9c              ??         9Ch
        00102cfe e2              ??         E2h
        00102cff ac              ??         ACh
        00102d00 9c              ??         9Ch
        00102d01 e2              ??         E2h
        00102d02 ac              ??         ACh
        00102d03 9c              ??         9Ch
        00102d04 e2              ??         E2h
        00102d05 ac              ??         ACh
        00102d06 9b              ??         9Bh
        00102d07 e2              ??         E2h
        00102d08 ac              ??         ACh
        00102d09 9b              ??         9Bh
        00102d0a e2              ??         E2h
        00102d0b ac              ??         ACh
        00102d0c 9c              ??         9Ch
        00102d0d e2              ??         E2h
        00102d0e ac              ??         ACh
        00102d0f 9c              ??         9Ch
        00102d10 e2              ??         E2h
        00102d11 ac              ??         ACh
        00102d12 9c              ??         9Ch
        00102d13 e2              ??         E2h
        00102d14 ac              ??         ACh
        00102d15 9c              ??         9Ch
        00102d16 e2              ??         E2h
        00102d17 ac              ??         ACh
        00102d18 9c              ??         9Ch
        00102d19 e2              ??         E2h
        00102d1a ac              ??         ACh
        00102d1b 9b              ??         9Bh
        00102d1c 0a              ??         0Ah
        00102d1d 20              ??         20h     
        00102d1e 20              ??         20h     
        00102d1f 20              ??         20h     
        00102d20 20              ??         20h     
        00102d21 20              ??         20h     
        00102d22 20              ??         20h     
        00102d23 20              ??         20h     
        00102d24 20              ??         20h     
        00102d25 20              ??         20h     
        00102d26 20              ??         20h     
        00102d27 20              ??         20h     
        00102d28 20              ??         20h     
        00102d29 20              ??         20h     
        00102d2a 20              ??         20h     
        00102d2b 20              ??         20h     
        00102d2c 20              ??         20h     
        00102d2d 20              ??         20h     
        00102d2e 20              ??         20h     
        00102d2f 20              ??         20h     
        00102d30 20              ??         20h     
        00102d31 e2              ??         E2h
        00102d32 ac              ??         ACh
        00102d33 9b              ??         9Bh
        00102d34 e2              ??         E2h
        00102d35 ac              ??         ACh
        00102d36 9b              ??         9Bh
        00102d37 e2              ??         E2h
        00102d38 ac              ??         ACh
        00102d39 9c              ??         9Ch
        00102d3a e2              ??         E2h
        00102d3b ac              ??         ACh
        00102d3c 9c              ??         9Ch
        00102d3d e2              ??         E2h
        00102d3e ac              ??         ACh
        00102d3f 9c              ??         9Ch
        00102d40 e2              ??         E2h
        00102d41 ac              ??         ACh
        00102d42 9c              ??         9Ch
        00102d43 e2              ??         E2h
        00102d44 ac              ??         ACh
        00102d45 9b              ??         9Bh
        00102d46 e2              ??         E2h
        00102d47 ac              ??         ACh
        00102d48 9b              ??         9Bh
        00102d49 e2              ??         E2h
        00102d4a ac              ??         ACh
        00102d4b 9b              ??         9Bh
        00102d4c e2              ??         E2h
        00102d4d ac              ??         ACh
        00102d4e 9b              ??         9Bh
        00102d4f e2              ??         E2h
        00102d50 ac              ??         ACh
        00102d51 9c              ??         9Ch
        00102d52 e2              ??         E2h
        00102d53 ac              ??         ACh
        00102d54 9c              ??         9Ch
        00102d55 e2              ??         E2h
        00102d56 ac              ??         ACh
        00102d57 9c              ??         9Ch
        00102d58 e2              ??         E2h
        00102d59 ac              ??         ACh
        00102d5a 9b              ??         9Bh
        00102d5b e2              ??         E2h
        00102d5c ac              ??         ACh
        00102d5d 9b              ??         9Bh
        00102d5e 0a              ??         0Ah
        00102d5f 20              ??         20h     
        00102d60 20              ??         20h     
        00102d61 20              ??         20h     
        00102d62 20              ??         20h     
        00102d63 20              ??         20h     
        00102d64 20              ??         20h     
        00102d65 20              ??         20h     
        00102d66 20              ??         20h     
        00102d67 20              ??         20h     
        00102d68 20              ??         20h     
        00102d69 20              ??         20h     
        00102d6a 20              ??         20h     
        00102d6b 20              ??         20h     
        00102d6c 20              ??         20h     
        00102d6d 20              ??         20h     
        00102d6e 20              ??         20h     
        00102d6f 20              ??         20h     
        00102d70 20              ??         20h     
        00102d71 e2              ??         E2h
        00102d72 ac              ??         ACh
        00102d73 9b              ??         9Bh
        00102d74 e2              ??         E2h
        00102d75 ac              ??         ACh
        00102d76 9b              ??         9Bh
        00102d77 e2              ??         E2h
        00102d78 ac              ??         ACh
        00102d79 9c              ??         9Ch
        00102d7a e2              ??         E2h
        00102d7b ac              ??         ACh
        00102d7c 9c              ??         9Ch
        00102d7d e2              ??         E2h
        00102d7e ac              ??         ACh
        00102d7f 9c              ??         9Ch
        00102d80 e2              ??         E2h
        00102d81 ac              ??         ACh
        00102d82 9c              ??         9Ch
        00102d83 e2              ??         E2h
        00102d84 ac              ??         ACh
        00102d85 9b              ??         9Bh
        00102d86 e2              ??         E2h
        00102d87 ac              ??         ACh
        00102d88 9b              ??         9Bh
        00102d89 f0              ??         F0h
        00102d8a 9f              ??         9Fh
        00102d8b 9f              ??         9Fh
        00102d8c a6              ??         A6h
        00102d8d f0              ??         F0h
        00102d8e 9f              ??         9Fh
        00102d8f 9f              ??         9Fh
        00102d90 a6              ??         A6h
        00102d91 e2              ??         E2h
        00102d92 ac              ??         ACh
        00102d93 9b              ??         9Bh
        00102d94 e2              ??         E2h
        00102d95 ac              ??         ACh
        00102d96 9b              ??         9Bh
        00102d97 e2              ??         E2h
        00102d98 ac              ??         ACh
        00102d99 9c              ??         9Ch
        00102d9a e2              ??         E2h
        00102d9b ac              ??         ACh
        00102d9c 9c              ??         9Ch
        00102d9d e2              ??         E2h
        00102d9e ac              ??         ACh
        00102d9f 9b              ??         9Bh
        00102da0 e2              ??         E2h
        00102da1 ac              ??         ACh
        00102da2 9b              ??         9Bh
        00102da3 0a              ??         0Ah
        00102da4 20              ??         20h     
        00102da5 20              ??         20h     
        00102da6 20              ??         20h     
        00102da7 20              ??         20h     
        00102da8 20              ??         20h     
        00102da9 20              ??         20h     
        00102daa e2              ??         E2h
        00102dab ac              ??         ACh
        00102dac 9b              ??         9Bh
        00102dad e2              ??         E2h
        00102dae ac              ??         ACh
        00102daf 9b              ??         9Bh
        00102db0 e2              ??         E2h
        00102db1 ac              ??         ACh
        00102db2 9b              ??         9Bh
        00102db3 e2              ??         E2h
        00102db4 ac              ??         ACh
        00102db5 9b              ??         9Bh
        00102db6 e2              ??         E2h
        00102db7 ac              ??         ACh
        00102db8 9b              ??         9Bh
        00102db9 e2              ??         E2h
        00102dba ac              ??         ACh
        00102dbb 9b              ??         9Bh
        00102dbc e2              ??         E2h
        00102dbd ac              ??         ACh
        00102dbe 9c              ??         9Ch
        00102dbf e2              ??         E2h
        00102dc0 ac              ??         ACh
        00102dc1 9c              ??         9Ch
        00102dc2 e2              ??         E2h
        00102dc3 ac              ??         ACh
        00102dc4 9c              ??         9Ch
        00102dc5 e2              ??         E2h
        00102dc6 ac              ??         ACh
        00102dc7 9c              ??         9Ch
        00102dc8 e2              ??         E2h
        00102dc9 ac              ??         ACh
        00102dca 9c              ??         9Ch
        00102dcb e2              ??         E2h
        00102dcc ac              ??         ACh
        00102dcd 9b              ??         9Bh
        00102dce e2              ??         E2h
        00102dcf ac              ??         ACh
        00102dd0 9b              ??         9Bh
        00102dd1 f0              ??         F0h
        00102dd2 9f              ??         9Fh
        00102dd3 9f              ??         9Fh
        00102dd4 a6              ??         A6h
        00102dd5 f0              ??         F0h
        00102dd6 9f              ??         9Fh
        00102dd7 9f              ??         9Fh
        00102dd8 a6              ??         A6h
        00102dd9 e2              ??         E2h
        00102dda ac              ??         ACh
        00102ddb 9b              ??         9Bh
        00102ddc e2              ??         E2h
        00102ddd ac              ??         ACh
        00102dde 9b              ??         9Bh
        00102ddf e2              ??         E2h
        00102de0 ac              ??         ACh
        00102de1 9c              ??         9Ch
        00102de2 e2              ??         E2h
        00102de3 ac              ??         ACh
        00102de4 9b              ??         9Bh
        00102de5 e2              ??         E2h
        00102de6 ac              ??         ACh
        00102de7 9b              ??         9Bh
        00102de8 0a              ??         0Ah
        00102de9 20              ??         20h     
        00102dea 20              ??         20h     
        00102deb 20              ??         20h     
        00102dec 20              ??         20h     
        00102ded 20              ??         20h     
        00102dee 20              ??         20h     
        00102def e2              ??         E2h
        00102df0 ac              ??         ACh
        00102df1 9b              ??         9Bh
        00102df2 e2              ??         E2h
        00102df3 ac              ??         ACh
        00102df4 9b              ??         9Bh
        00102df5 e2              ??         E2h
        00102df6 ac              ??         ACh
        00102df7 9c              ??         9Ch
        00102df8 e2              ??         E2h
        00102df9 ac              ??         ACh
        00102dfa 9c              ??         9Ch
        00102dfb e2              ??         E2h
        00102dfc ac              ??         ACh
        00102dfd 9b              ??         9Bh
        00102dfe e2              ??         E2h
        00102dff ac              ??         ACh
        00102e00 9b              ??         9Bh
        00102e01 e2              ??         E2h
        00102e02 ac              ??         ACh
        00102e03 9c              ??         9Ch
        00102e04 e2              ??         E2h
        00102e05 ac              ??         ACh
        00102e06 9c              ??         9Ch
        00102e07 e2              ??         E2h
        00102e08 ac              ??         ACh
        00102e09 9c              ??         9Ch
        00102e0a e2              ??         E2h
        00102e0b ac              ??         ACh
        00102e0c 9c              ??         9Ch
        00102e0d e2              ??         E2h
        00102e0e ac              ??         ACh
        00102e0f 9c              ??         9Ch
        00102e10 e2              ??         E2h
        00102e11 ac              ??         ACh
        00102e12 9c              ??         9Ch
        00102e13 e2              ??         E2h
        00102e14 ac              ??         ACh
        00102e15 9c              ??         9Ch
        00102e16 e2              ??         E2h
        00102e17 ac              ??         ACh
        00102e18 9b              ??         9Bh
        00102e19 e2              ??         E2h
        00102e1a ac              ??         ACh
        00102e1b 9b              ??         9Bh
        00102e1c e2              ??         E2h
        00102e1d ac              ??         ACh
        00102e1e 9b              ??         9Bh
        00102e1f e2              ??         E2h
        00102e20 ac              ??         ACh
        00102e21 9b              ??         9Bh
        00102e22 e2              ??         E2h
        00102e23 ac              ??         ACh
        00102e24 9c              ??         9Ch
        00102e25 e2              ??         E2h
        00102e26 ac              ??         ACh
        00102e27 9c              ??         9Ch
        00102e28 e2              ??         E2h
        00102e29 ac              ??         ACh
        00102e2a 9b              ??         9Bh
        00102e2b e2              ??         E2h
        00102e2c ac              ??         ACh
        00102e2d 9b              ??         9Bh
        00102e2e 0a              ??         0Ah
        00102e2f 20              ??         20h     
        00102e30 20              ??         20h     
        00102e31 20              ??         20h     
        00102e32 20              ??         20h     
        00102e33 20              ??         20h     
        00102e34 20              ??         20h     
        00102e35 e2              ??         E2h
        00102e36 ac              ??         ACh
        00102e37 9b              ??         9Bh
        00102e38 e2              ??         E2h
        00102e39 ac              ??         ACh
        00102e3a 9c              ??         9Ch
        00102e3b e2              ??         E2h
        00102e3c ac              ??         ACh
        00102e3d 9c              ??         9Ch
        00102e3e e2              ??         E2h
        00102e3f ac              ??         ACh
        00102e40 9b              ??         9Bh
        00102e41 e2              ??         E2h
        00102e42 ac              ??         ACh
        00102e43 9b              ??         9Bh
        00102e44 e2              ??         E2h
        00102e45 ac              ??         ACh
        00102e46 9c              ??         9Ch
        00102e47 e2              ??         E2h
        00102e48 ac              ??         ACh
        00102e49 9c              ??         9Ch
        00102e4a e2              ??         E2h
        00102e4b ac              ??         ACh
        00102e4c 9c              ??         9Ch
        00102e4d e2              ??         E2h
        00102e4e ac              ??         ACh
        00102e4f 9c              ??         9Ch
        00102e50 e2              ??         E2h
        00102e51 ac              ??         ACh
        00102e52 9c              ??         9Ch
        00102e53 e2              ??         E2h
        00102e54 ac              ??         ACh
        00102e55 9c              ??         9Ch
        00102e56 e2              ??         E2h
        00102e57 ac              ??         ACh
        00102e58 9c              ??         9Ch
        00102e59 e2              ??         E2h
        00102e5a ac              ??         ACh
        00102e5b 9c              ??         9Ch
        00102e5c e2              ??         E2h
        00102e5d ac              ??         ACh
        00102e5e 9c              ??         9Ch
        00102e5f e2              ??         E2h
        00102e60 ac              ??         ACh
        00102e61 9b              ??         9Bh
        00102e62 e2              ??         E2h
        00102e63 ac              ??         ACh
        00102e64 9b              ??         9Bh
        00102e65 e2              ??         E2h
        00102e66 ac              ??         ACh
        00102e67 9c              ??         9Ch
        00102e68 e2              ??         E2h
        00102e69 ac              ??         ACh
        00102e6a 9c              ??         9Ch
        00102e6b e2              ??         E2h
        00102e6c ac              ??         ACh
        00102e6d 9b              ??         9Bh
        00102e6e e2              ??         E2h
        00102e6f ac              ??         ACh
        00102e70 9b              ??         9Bh
        00102e71 0a              ??         0Ah
        00102e72 20              ??         20h     
        00102e73 20              ??         20h     
        00102e74 20              ??         20h     
        00102e75 20              ??         20h     
        00102e76 e2              ??         E2h
        00102e77 ac              ??         ACh
        00102e78 9b              ??         9Bh
        00102e79 e2              ??         E2h
        00102e7a ac              ??         ACh
        00102e7b 9b              ??         9Bh
        00102e7c e2              ??         E2h
        00102e7d ac              ??         ACh
        00102e7e 9c              ??         9Ch
        00102e7f e2              ??         E2h
        00102e80 ac              ??         ACh
        00102e81 9b              ??         9Bh
        00102e82 e2              ??         E2h
        00102e83 ac              ??         ACh
        00102e84 9b              ??         9Bh
        00102e85 e2              ??         E2h
        00102e86 ac              ??         ACh
        00102e87 9c              ??         9Ch
        00102e88 e2              ??         E2h
        00102e89 ac              ??         ACh
        00102e8a 9c              ??         9Ch
        00102e8b e2              ??         E2h
        00102e8c ac              ??         ACh
        00102e8d 9c              ??         9Ch
        00102e8e e2              ??         E2h
        00102e8f ac              ??         ACh
        00102e90 9c              ??         9Ch
        00102e91 e2              ??         E2h
        00102e92 ac              ??         ACh
        00102e93 9c              ??         9Ch
        00102e94 e2              ??         E2h
        00102e95 ac              ??         ACh
        00102e96 9b              ??         9Bh
        00102e97 e2              ??         E2h
        00102e98 ac              ??         ACh
        00102e99 9b              ??         9Bh
        00102e9a e2              ??         E2h
        00102e9b ac              ??         ACh
        00102e9c 9c              ??         9Ch
        00102e9d e2              ??         E2h
        00102e9e ac              ??         ACh
        00102e9f 9c              ??         9Ch
        00102ea0 e2              ??         E2h
        00102ea1 ac              ??         ACh
        00102ea2 9c              ??         9Ch
        00102ea3 e2              ??         E2h
        00102ea4 ac              ??         ACh
        00102ea5 9c              ??         9Ch
        00102ea6 e2              ??         E2h
        00102ea7 ac              ??         ACh
        00102ea8 9c              ??         9Ch
        00102ea9 e2              ??         E2h
        00102eaa ac              ??         ACh
        00102eab 9c              ??         9Ch
        00102eac e2              ??         E2h
        00102ead ac              ??         ACh
        00102eae 9b              ??         9Bh
        00102eaf e2              ??         E2h
        00102eb0 ac              ??         ACh
        00102eb1 9b              ??         9Bh
        00102eb2 0a              ??         0Ah
        00102eb3 20              ??         20h     
        00102eb4 20              ??         20h     
        00102eb5 20              ??         20h     
        00102eb6 20              ??         20h     
        00102eb7 e2              ??         E2h
        00102eb8 ac              ??         ACh
        00102eb9 9b              ??         9Bh
        00102eba e2              ??         E2h
        00102ebb ac              ??         ACh
        00102ebc 9b              ??         9Bh
        00102ebd e2              ??         E2h
        00102ebe ac              ??         ACh
        00102ebf 9c              ??         9Ch
        00102ec0 e2              ??         E2h
        00102ec1 ac              ??         ACh
        00102ec2 9b              ??         9Bh
        00102ec3 e2              ??         E2h
        00102ec4 ac              ??         ACh
        00102ec5 9b              ??         9Bh
        00102ec6 e2              ??         E2h
        00102ec7 ac              ??         ACh
        00102ec8 9c              ??         9Ch
        00102ec9 e2              ??         E2h
        00102eca ac              ??         ACh
        00102ecb 9c              ??         9Ch
        00102ecc e2              ??         E2h
        00102ecd ac              ??         ACh
        00102ece 9c              ??         9Ch
        00102ecf e2              ??         E2h
        00102ed0 ac              ??         ACh
        00102ed1 9c              ??         9Ch
        00102ed2 e2              ??         E2h
        00102ed3 ac              ??         ACh
        00102ed4 9b              ??         9Bh
        00102ed5 e2              ??         E2h
        00102ed6 ac              ??         ACh
        00102ed7 9b              ??         9Bh
        00102ed8 e2              ??         E2h
        00102ed9 ac              ??         ACh
        00102eda 9b              ??         9Bh
        00102edb e2              ??         E2h
        00102edc ac              ??         ACh
        00102edd 9b              ??         9Bh
        00102ede e2              ??         E2h
        00102edf ac              ??         ACh
        00102ee0 9c              ??         9Ch
        00102ee1 e2              ??         E2h
        00102ee2 ac              ??         ACh
        00102ee3 9c              ??         9Ch
        00102ee4 e2              ??         E2h
        00102ee5 ac              ??         ACh
        00102ee6 9c              ??         9Ch
        00102ee7 e2              ??         E2h
        00102ee8 ac              ??         ACh
        00102ee9 9c              ??         9Ch
        00102eea e2              ??         E2h
        00102eeb ac              ??         ACh
        00102eec 9c              ??         9Ch
        00102eed e2              ??         E2h
        00102eee ac              ??         ACh
        00102eef 9b              ??         9Bh
        00102ef0 e2              ??         E2h
        00102ef1 ac              ??         ACh
        00102ef2 9b              ??         9Bh
        00102ef3 0a              ??         0Ah
        00102ef4 20              ??         20h     
        00102ef5 20              ??         20h     
        00102ef6 e2              ??         E2h
        00102ef7 ac              ??         ACh
        00102ef8 9b              ??         9Bh
        00102ef9 e2              ??         E2h
        00102efa ac              ??         ACh
        00102efb 9b              ??         9Bh
        00102efc e2              ??         E2h
        00102efd ac              ??         ACh
        00102efe 9b              ??         9Bh
        00102eff e2              ??         E2h
        00102f00 ac              ??         ACh
        00102f01 9b              ??         9Bh
        00102f02 e2              ??         E2h
        00102f03 ac              ??         ACh
        00102f04 9b              ??         9Bh
        00102f05 e2              ??         E2h
        00102f06 ac              ??         ACh
        00102f07 9c              ??         9Ch
        00102f08 e2              ??         E2h
        00102f09 ac              ??         ACh
        00102f0a 9c              ??         9Ch
        00102f0b e2              ??         E2h
        00102f0c ac              ??         ACh
        00102f0d 9c              ??         9Ch
        00102f0e e2              ??         E2h
        00102f0f ac              ??         ACh
        00102f10 9c              ??         9Ch
        00102f11 e2              ??         E2h
        00102f12 ac              ??         ACh
        00102f13 9b              ??         9Bh
        00102f14 e2              ??         E2h
        00102f15 ac              ??         ACh
        00102f16 9b              ??         9Bh
        00102f17 e2              ??         E2h
        00102f18 ac              ??         ACh
        00102f19 9b              ??         9Bh
        00102f1a e2              ??         E2h
        00102f1b ac              ??         ACh
        00102f1c 9b              ??         9Bh
        00102f1d e2              ??         E2h
        00102f1e ac              ??         ACh
        00102f1f 9b              ??         9Bh
        00102f20 e2              ??         E2h
        00102f21 ac              ??         ACh
        00102f22 9c              ??         9Ch
        00102f23 e2              ??         E2h
        00102f24 ac              ??         ACh
        00102f25 9c              ??         9Ch
        00102f26 e2              ??         E2h
        00102f27 ac              ??         ACh
        00102f28 9c              ??         9Ch
        00102f29 e2              ??         E2h
        00102f2a ac              ??         ACh
        00102f2b 9c              ??         9Ch
        00102f2c e2              ??         E2h
        00102f2d ac              ??         ACh
        00102f2e 9b              ??         9Bh
        00102f2f e2              ??         E2h
        00102f30 ac              ??         ACh
        00102f31 9b              ??         9Bh
        00102f32 0a              ??         0Ah
        00102f33 20              ??         20h     
        00102f34 20              ??         20h     
        00102f35 e2              ??         E2h
        00102f36 ac              ??         ACh
        00102f37 9b              ??         9Bh
        00102f38 e2              ??         E2h
        00102f39 ac              ??         ACh
        00102f3a 9b              ??         9Bh
        00102f3b e2              ??         E2h
        00102f3c ac              ??         ACh
        00102f3d 9b              ??         9Bh
        00102f3e e2              ??         E2h
        00102f3f ac              ??         ACh
        00102f40 9b              ??         9Bh
        00102f41 e2              ??         E2h
        00102f42 ac              ??         ACh
        00102f43 9b              ??         9Bh
        00102f44 e2              ??         E2h
        00102f45 ac              ??         ACh
        00102f46 9b              ??         9Bh
        00102f47 e2              ??         E2h
        00102f48 ac              ??         ACh
        00102f49 9c              ??         9Ch
        00102f4a e2              ??         E2h
        00102f4b ac              ??         ACh
        00102f4c 9c              ??         9Ch
        00102f4d e2              ??         E2h
        00102f4e ac              ??         ACh
        00102f4f 9b              ??         9Bh
        00102f50 e2              ??         E2h
        00102f51 ac              ??         ACh
        00102f52 9b              ??         9Bh
        00102f53 e2              ??         E2h
        00102f54 ac              ??         ACh
        00102f55 9b              ??         9Bh
        00102f56 e2              ??         E2h
        00102f57 ac              ??         ACh
        00102f58 9b              ??         9Bh
        00102f59 e2              ??         E2h
        00102f5a ac              ??         ACh
        00102f5b 9b              ??         9Bh
        00102f5c e2              ??         E2h
        00102f5d ac              ??         ACh
        00102f5e 9c              ??         9Ch
        00102f5f e2              ??         E2h
        00102f60 ac              ??         ACh
        00102f61 9c              ??         9Ch
        00102f62 e2              ??         E2h
        00102f63 ac              ??         ACh
        00102f64 9c              ??         9Ch
        00102f65 e2              ??         E2h
        00102f66 ac              ??         ACh
        00102f67 9c              ??         9Ch
        00102f68 e2              ??         E2h
        00102f69 ac              ??         ACh
        00102f6a 9b              ??         9Bh
        00102f6b e2              ??         E2h
        00102f6c ac              ??         ACh
        00102f6d 9b              ??         9Bh
        00102f6e 0a              ??         0Ah
        00102f6f 20              ??         20h     
        00102f70 20              ??         20h     
        00102f71 20              ??         20h     
        00102f72 20              ??         20h     
        00102f73 20              ??         20h     
        00102f74 20              ??         20h     
        00102f75 20              ??         20h     
        00102f76 20              ??         20h     
        00102f77 f0              ??         F0h
        00102f78 9f              ??         9Fh
        00102f79 9f              ??         9Fh
        00102f7a a7              ??         A7h
        00102f7b f0              ??         F0h
        00102f7c 9f              ??         9Fh
        00102f7d 9f              ??         9Fh
        00102f7e a8              ??         A8h
        00102f7f f0              ??         F0h
        00102f80 9f              ??         9Fh
        00102f81 9f              ??         9Fh
        00102f82 a8              ??         A8h
        00102f83 e2              ??         E2h
        00102f84 ac              ??         ACh
        00102f85 9b              ??         9Bh
        00102f86 e2              ??         E2h
        00102f87 ac              ??         ACh
        00102f88 9b              ??         9Bh
        00102f89 e2              ??         E2h
        00102f8a ac              ??         ACh
        00102f8b 9b              ??         9Bh
        00102f8c e2              ??         E2h
        00102f8d ac              ??         ACh
        00102f8e 9b              ??         9Bh
        00102f8f e2              ??         E2h
        00102f90 ac              ??         ACh
        00102f91 9b              ??         9Bh
        00102f92 e2              ??         E2h
        00102f93 ac              ??         ACh
        00102f94 9c              ??         9Ch
        00102f95 e2              ??         E2h
        00102f96 ac              ??         ACh
        00102f97 9c              ??         9Ch
        00102f98 e2              ??         E2h
        00102f99 ac              ??         ACh
        00102f9a 9c              ??         9Ch
        00102f9b e2              ??         E2h
        00102f9c ac              ??         ACh
        00102f9d 9c              ??         9Ch
        00102f9e e2              ??         E2h
        00102f9f ac              ??         ACh
        00102fa0 9b              ??         9Bh
        00102fa1 e2              ??         E2h
        00102fa2 ac              ??         ACh
        00102fa3 9b              ??         9Bh
        00102fa4 0a              ??         0Ah
        00102fa5 20              ??         20h     
        00102fa6 20              ??         20h     
        00102fa7 20              ??         20h     
        00102fa8 20              ??         20h     
        00102fa9 f0              ??         F0h
        00102faa 9f              ??         9Fh
        00102fab 9f              ??         9Fh
        00102fac a7              ??         A7h
        00102fad f0              ??         F0h
        00102fae 9f              ??         9Fh
        00102faf 9f              ??         9Fh
        00102fb0 a7              ??         A7h
        00102fb1 f0              ??         F0h
        00102fb2 9f              ??         9Fh
        00102fb3 9f              ??         9Fh
        00102fb4 a8              ??         A8h
        00102fb5 f0              ??         F0h
        00102fb6 9f              ??         9Fh
        00102fb7 9f              ??         9Fh
        00102fb8 a8              ??         A8h
        00102fb9 f0              ??         F0h
        00102fba 9f              ??         9Fh
        00102fbb 9f              ??         9Fh
        00102fbc a8              ??         A8h
        00102fbd f0              ??         F0h
        00102fbe 9f              ??         9Fh
        00102fbf 9f              ??         9Fh
        00102fc0 a8              ??         A8h
        00102fc1 e2              ??         E2h
        00102fc2 ac              ??         ACh
        00102fc3 9b              ??         9Bh
        00102fc4 e2              ??         E2h
        00102fc5 ac              ??         ACh
        00102fc6 9b              ??         9Bh
        00102fc7 e2              ??         E2h
        00102fc8 ac              ??         ACh
        00102fc9 9b              ??         9Bh
        00102fca e2              ??         E2h
        00102fcb ac              ??         ACh
        00102fcc 9b              ??         9Bh
        00102fcd e2              ??         E2h
        00102fce ac              ??         ACh
        00102fcf 9c              ??         9Ch
        00102fd0 e2              ??         E2h
        00102fd1 ac              ??         ACh
        00102fd2 9c              ??         9Ch
        00102fd3 e2              ??         E2h
        00102fd4 ac              ??         ACh
        00102fd5 9c              ??         9Ch
        00102fd6 e2              ??         E2h
        00102fd7 ac              ??         ACh
        00102fd8 9c              ??         9Ch
        00102fd9 e2              ??         E2h
        00102fda ac              ??         ACh
        00102fdb 9b              ??         9Bh
        00102fdc e2              ??         E2h
        00102fdd ac              ??         ACh
        00102fde 9b              ??         9Bh
        00102fdf 0a              ??         0Ah
        00102fe0 20              ??         20h     
        00102fe1 20              ??         20h     
        00102fe2 f0              ??         F0h
        00102fe3 9f              ??         9Fh
        00102fe4 9f              ??         9Fh
        00102fe5 a5              ??         A5h
        00102fe6 f0              ??         F0h
        00102fe7 9f              ??         9Fh
        00102fe8 9f              ??         9Fh
        00102fe9 a5              ??         A5h
        00102fea f0              ??         F0h
        00102feb 9f              ??         9Fh
        00102fec 9f              ??         9Fh
        00102fed a7              ??         A7h
        00102fee f0              ??         F0h
        00102fef 9f              ??         9Fh
        00102ff0 9f              ??         9Fh
        00102ff1 a8              ??         A8h
        00102ff2 f0              ??         F0h
        00102ff3 9f              ??         9Fh
        00102ff4 9f              ??         9Fh
        00102ff5 a8              ??         A8h
        00102ff6 f0              ??         F0h
        00102ff7 9f              ??         9Fh
        00102ff8 9f              ??         9Fh
        00102ff9 a8              ??         A8h
        00102ffa f0              ??         F0h
        00102ffb 9f              ??         9Fh
        00102ffc 9f              ??         9Fh
        00102ffd a8              ??         A8h
        00102ffe e2              ??         E2h
        00102fff ac              ??         ACh
        00103000 9b              ??         9Bh
        00103001 e2              ??         E2h
        00103002 ac              ??         ACh
        00103003 9b              ??         9Bh
        00103004 e2              ??         E2h
        00103005 ac              ??         ACh
        00103006 9b              ??         9Bh
        00103007 e2              ??         E2h
        00103008 ac              ??         ACh
        00103009 9c              ??         9Ch
        0010300a e2              ??         E2h
        0010300b ac              ??         ACh
        0010300c 9c              ??         9Ch
        0010300d e2              ??         E2h
        0010300e ac              ??         ACh
        0010300f 9c              ??         9Ch
        00103010 e2              ??         E2h
        00103011 ac              ??         ACh
        00103012 9c              ??         9Ch
        00103013 e2              ??         E2h
        00103014 ac              ??         ACh
        00103015 9b              ??         9Bh
        00103016 e2              ??         E2h
        00103017 ac              ??         ACh
        00103018 9b              ??         9Bh
        00103019 e2              ??         E2h
        0010301a ac              ??         ACh
        0010301b 9b              ??         9Bh
        0010301c 0a              ??         0Ah
        0010301d f0              ??         F0h
        0010301e 9f              ??         9Fh
        0010301f 9f              ??         9Fh
        00103020 a7              ??         A7h
        00103021 f0              ??         F0h
        00103022 9f              ??         9Fh
        00103023 9f              ??         9Fh
        00103024 a5              ??         A5h
        00103025 f0              ??         F0h
        00103026 9f              ??         9Fh
        00103027 9f              ??         9Fh
        00103028 a5              ??         A5h
        00103029 f0              ??         F0h
        0010302a 9f              ??         9Fh
        0010302b 9f              ??         9Fh
        0010302c a5              ??         A5h
        0010302d f0              ??         F0h
        0010302e 9f              ??         9Fh
        0010302f 9f              ??         9Fh
        00103030 a7              ??         A7h
        00103031 f0              ??         F0h
        00103032 9f              ??         9Fh
        00103033 9f              ??         9Fh
        00103034 a8              ??         A8h
        00103035 f0              ??         F0h
        00103036 9f              ??         9Fh
        00103037 9f              ??         9Fh
        00103038 a8              ??         A8h
        00103039 f0              ??         F0h
        0010303a 9f              ??         9Fh
        0010303b 9f              ??         9Fh
        0010303c a8              ??         A8h
        0010303d f0              ??         F0h
        0010303e 9f              ??         9Fh
        0010303f 9f              ??         9Fh
        00103040 a8              ??         A8h
        00103041 f0              ??         F0h
        00103042 9f              ??         9Fh
        00103043 9f              ??         9Fh
        00103044 a8              ??         A8h
        00103045 f0              ??         F0h
        00103046 9f              ??         9Fh
        00103047 9f              ??         9Fh
        00103048 a8              ??         A8h
        00103049 e2              ??         E2h
        0010304a ac              ??         ACh
        0010304b 9c              ??         9Ch
        0010304c e2              ??         E2h
        0010304d ac              ??         ACh
        0010304e 9c              ??         9Ch
        0010304f e2              ??         E2h
        00103050 ac              ??         ACh
        00103051 9b              ??         9Bh
        00103052 e2              ??         E2h
        00103053 ac              ??         ACh
        00103054 9b              ??         9Bh
        00103055 e2              ??         E2h
        00103056 ac              ??         ACh
        00103057 9c              ??         9Ch
        00103058 e2              ??         E2h
        00103059 ac              ??         ACh
        0010305a 9b              ??         9Bh
        0010305b e2              ??         E2h
        0010305c ac              ??         ACh
        0010305d 9b              ??         9Bh
        0010305e 0a              ??         0Ah
        0010305f 20              ??         20h     
        00103060 20              ??         20h     
        00103061 20              ??         20h     
        00103062 20              ??         20h     
        00103063 20              ??         20h     
        00103064 20              ??         20h     
        00103065 f0              ??         F0h
        00103066 9f              ??         9Fh
        00103067 9f              ??         9Fh
        00103068 a5              ??         A5h
        00103069 f0              ??         F0h
        0010306a 9f              ??         9Fh
        0010306b 9f              ??         9Fh
        0010306c a7              ??         A7h
        0010306d f0              ??         F0h
        0010306e 9f              ??         9Fh
        0010306f 9f              ??         9Fh
        00103070 a8              ??         A8h
        00103071 f0              ??         F0h
        00103072 9f              ??         9Fh
        00103073 9f              ??         9Fh
        00103074 a8              ??         A8h
        00103075 f0              ??         F0h
        00103076 9f              ??         9Fh
        00103077 9f              ??         9Fh
        00103078 a8              ??         A8h
        00103079 f0              ??         F0h
        0010307a 9f              ??         9Fh
        0010307b 9f              ??         9Fh
        0010307c a8              ??         A8h
        0010307d f0              ??         F0h
        0010307e 9f              ??         9Fh
        0010307f 9f              ??         9Fh
        00103080 a8              ??         A8h
        00103081 f0              ??         F0h
        00103082 9f              ??         9Fh
        00103083 9f              ??         9Fh
        00103084 a7              ??         A7h
        00103085 e2              ??         E2h
        00103086 ac              ??         ACh
        00103087 9b              ??         9Bh
        00103088 e2              ??         E2h
        00103089 ac              ??         ACh
        0010308a 9b              ??         9Bh
        0010308b e2              ??         E2h
        0010308c ac              ??         ACh
        0010308d 9b              ??         9Bh
        0010308e e2              ??         E2h
        0010308f ac              ??         ACh
        00103090 9c              ??         9Ch
        00103091 e2              ??         E2h
        00103092 ac              ??         ACh
        00103093 9c              ??         9Ch
        00103094 e2              ??         E2h
        00103095 ac              ??         ACh
        00103096 9b              ??         9Bh
        00103097 e2              ??         E2h
        00103098 ac              ??         ACh
        00103099 9b              ??         9Bh
        0010309a 0a              ??         0Ah
        0010309b 20              ??         20h     
        0010309c 20              ??         20h     
        0010309d 20              ??         20h     
        0010309e 20              ??         20h     
        0010309f f0              ??         F0h
        001030a0 9f              ??         9Fh
        001030a1 9f              ??         9Fh
        001030a2 a5              ??         A5h
        001030a3 f0              ??         F0h
        001030a4 9f              ??         9Fh
        001030a5 9f              ??         9Fh
        001030a6 a5              ??         A5h
        001030a7 f0              ??         F0h
        001030a8 9f              ??         9Fh
        001030a9 9f              ??         9Fh
        001030aa a5              ??         A5h
        001030ab f0              ??         F0h
        001030ac 9f              ??         9Fh
        001030ad 9f              ??         9Fh
        001030ae a7              ??         A7h
        001030af f0              ??         F0h
        001030b0 9f              ??         9Fh
        001030b1 9f              ??         9Fh
        001030b2 a8              ??         A8h
        001030b3 f0              ??         F0h
        001030b4 9f              ??         9Fh
        001030b5 9f              ??         9Fh
        001030b6 a8              ??         A8h
        001030b7 f0              ??         F0h
        001030b8 9f              ??         9Fh
        001030b9 9f              ??         9Fh
        001030ba a7              ??         A7h
        001030bb f0              ??         F0h
        001030bc 9f              ??         9Fh
        001030bd 9f              ??         9Fh
        001030be a8              ??         A8h
        001030bf f0              ??         F0h
        001030c0 9f              ??         9Fh
        001030c1 9f              ??         9Fh
        001030c2 a5              ??         A5h
        001030c3 e2              ??         E2h
        001030c4 ac              ??         ACh
        001030c5 9b              ??         9Bh
        001030c6 e2              ??         E2h
        001030c7 ac              ??         ACh
        001030c8 9b              ??         9Bh
        001030c9 e2              ??         E2h
        001030ca ac              ??         ACh
        001030cb 9c              ??         9Ch
        001030cc e2              ??         E2h
        001030cd ac              ??         ACh
        001030ce 9c              ??         9Ch
        001030cf e2              ??         E2h
        001030d0 ac              ??         ACh
        001030d1 9c              ??         9Ch
        001030d2 e2              ??         E2h
        001030d3 ac              ??         ACh
        001030d4 9b              ??         9Bh
        001030d5 e2              ??         E2h
        001030d6 ac              ??         ACh
        001030d7 9b              ??         9Bh
        001030d8 0a              ??         0Ah
        001030d9 20              ??         20h     
        001030da 20              ??         20h     
        001030db f0              ??         F0h
        001030dc 9f              ??         9Fh
        001030dd 9f              ??         9Fh
        001030de a5              ??         A5h
        001030df f0              ??         F0h
        001030e0 9f              ??         9Fh
        001030e1 9f              ??         9Fh
        001030e2 a5              ??         A5h
        001030e3 f0              ??         F0h
        001030e4 9f              ??         9Fh
        001030e5 9f              ??         9Fh
        001030e6 a5              ??         A5h
        001030e7 f0              ??         F0h
        001030e8 9f              ??         9Fh
        001030e9 9f              ??         9Fh
        001030ea a5              ??         A5h
        001030eb f0              ??         F0h
        001030ec 9f              ??         9Fh
        001030ed 9f              ??         9Fh
        001030ee a7              ??         A7h
        001030ef f0              ??         F0h
        001030f0 9f              ??         9Fh
        001030f1 9f              ??         9Fh
        001030f2 a7              ??         A7h
        001030f3 f0              ??         F0h
        001030f4 9f              ??         9Fh
        001030f5 9f              ??         9Fh
        001030f6 a5              ??         A5h
        001030f7 f0              ??         F0h
        001030f8 9f              ??         9Fh
        001030f9 9f              ??         9Fh
        001030fa a7              ??         A7h
        001030fb f0              ??         F0h
        001030fc 9f              ??         9Fh
        001030fd 9f              ??         9Fh
        001030fe a8              ??         A8h
        001030ff f0              ??         F0h
        00103100 9f              ??         9Fh
        00103101 9f              ??         9Fh
        00103102 a5              ??         A5h
        00103103 e2              ??         E2h
        00103104 ac              ??         ACh
        00103105 9b              ??         9Bh
        00103106 e2              ??         E2h
        00103107 ac              ??         ACh
        00103108 9b              ??         9Bh
        00103109 e2              ??         E2h
        0010310a ac              ??         ACh
        0010310b 9b              ??         9Bh
        0010310c e2              ??         E2h
        0010310d ac              ??         ACh
        0010310e 9b              ??         9Bh
        0010310f e2              ??         E2h
        00103110 ac              ??         ACh
        00103111 9b              ??         9Bh
        00103112 e2              ??         E2h
        00103113 ac              ??         ACh
        00103114 9b              ??         9Bh
        00103115 0a              ??         0Ah
        00103116 f0              ??         F0h
        00103117 9f              ??         9Fh
        00103118 9f              ??         9Fh
        00103119 a7              ??         A7h
        0010311a f0              ??         F0h
        0010311b 9f              ??         9Fh
        0010311c 9f              ??         9Fh
        0010311d a5              ??         A5h
        0010311e f0              ??         F0h
        0010311f 9f              ??         9Fh
        00103120 9f              ??         9Fh
        00103121 a5              ??         A5h
        00103122 f0              ??         F0h
        00103123 9f              ??         9Fh
        00103124 9f              ??         9Fh
        00103125 a5              ??         A5h
        00103126 f0              ??         F0h
        00103127 9f              ??         9Fh
        00103128 9f              ??         9Fh
        00103129 a5              ??         A5h
        0010312a f0              ??         F0h
        0010312b 9f              ??         9Fh
        0010312c 9f              ??         9Fh
        0010312d a5              ??         A5h
        0010312e f0              ??         F0h
        0010312f 9f              ??         9Fh
        00103130 9f              ??         9Fh
        00103131 a5              ??         A5h
        00103132 f0              ??         F0h
        00103133 9f              ??         9Fh
        00103134 9f              ??         9Fh
        00103135 a5              ??         A5h
        00103136 f0              ??         F0h
        00103137 9f              ??         9Fh
        00103138 9f              ??         9Fh
        00103139 a5              ??         A5h
        0010313a f0              ??         F0h
        0010313b 9f              ??         9Fh
        0010313c 9f              ??         9Fh
        0010313d a7              ??         A7h
        0010313e f0              ??         F0h
        0010313f 9f              ??         9Fh
        00103140 9f              ??         9Fh
        00103141 a5              ??         A5h
        00103142 e2              ??         E2h
        00103143 ac              ??         ACh
        00103144 9b              ??         9Bh
        00103145 e2              ??         E2h
        00103146 ac              ??         ACh
        00103147 9b              ??         9Bh
        00103148 e2              ??         E2h
        00103149 ac              ??         ACh
        0010314a 9b              ??         9Bh
        0010314b e2              ??         E2h
        0010314c ac              ??         ACh
        0010314d 9b              ??         9Bh
        0010314e 0a              ??         0Ah
        0010314f f0              ??         F0h
        00103150 9f              ??         9Fh
        00103151 9f              ??         9Fh
        00103152 a5              ??         A5h
        00103153 20              ??         20h     
        00103154 20              ??         20h     
        00103155 20              ??         20h     
        00103156 20              ??         20h     
        00103157 20              ??         20h     
        00103158 20              ??         20h     
        00103159 f0              ??         F0h
        0010315a 9f              ??         9Fh
        0010315b 9f              ??         9Fh
        0010315c a5              ??         A5h
        0010315d f0              ??         F0h
        0010315e 9f              ??         9Fh
        0010315f 9f              ??         9Fh
        00103160 a5              ??         A5h
        00103161 f0              ??         F0h
        00103162 9f              ??         9Fh
        00103163 9f              ??         9Fh
        00103164 a5              ??         A5h
        00103165 f0              ??         F0h
        00103166 9f              ??         9Fh
        00103167 9f              ??         9Fh
        00103168 a7              ??         A7h
        00103169 f0              ??         F0h
        0010316a 9f              ??         9Fh
        0010316b 9f              ??         9Fh
        0010316c a5              ??         A5h
        0010316d f0              ??         F0h
        0010316e 9f              ??         9Fh
        0010316f 9f              ??         9Fh
        00103170 a7              ??         A7h
        00103171 20              ??         20h     
        00103172 20              ??         20h     
        00103173 e2              ??         E2h
        00103174 ac              ??         ACh
        00103175 9b              ??         9Bh
        00103176 e2              ??         E2h
        00103177 ac              ??         ACh
        00103178 9b              ??         9Bh
        00103179 0a              ??         0Ah
        0010317a 20              ??         20h     
        0010317b 20              ??         20h     
        0010317c 20              ??         20h     
        0010317d 20              ??         20h     
        0010317e 20              ??         20h     
        0010317f 20              ??         20h     
        00103180 f0              ??         F0h
        00103181 9f              ??         9Fh
        00103182 9f              ??         9Fh
        00103183 a5              ??         A5h
        00103184 f0              ??         F0h
        00103185 9f              ??         9Fh
        00103186 9f              ??         9Fh
        00103187 a5              ??         A5h
        00103188 f0              ??         F0h
        00103189 9f              ??         9Fh
        0010318a 9f              ??         9Fh
        0010318b a5              ??         A5h
        0010318c 20              ??         20h     
        0010318d 20              ??         20h     
        0010318e f0              ??         F0h
        0010318f 9f              ??         9Fh
        00103190 9f              ??         9Fh
        00103191 a5              ??         A5h
        00103192 f0              ??         F0h
        00103193 9f              ??         9Fh
        00103194 9f              ??         9Fh
        00103195 a5              ??         A5h
        00103196 0a              ??         0Ah
        00103197 20              ??         20h     
        00103198 20              ??         20h     
        00103199 20              ??         20h     
        0010319a 20              ??         20h     
        0010319b 20              ??         20h     
        0010319c 20              ??         20h     
        0010319d f0              ??         F0h
        0010319e 9f              ??         9Fh
        0010319f 9f              ??         9Fh
        001031a0 a5              ??         A5h
        001031a1 f0              ??         F0h
        001031a2 9f              ??         9Fh
        001031a3 9f              ??         9Fh
        001031a4 a7              ??         A7h
        001031a5 20              ??         20h     
        001031a6 20              ??         20h     
        001031a7 20              ??         20h     
        001031a8 20              ??         20h     
        001031a9 f0              ??         F0h
        001031aa 9f              ??         9Fh
        001031ab 9f              ??         9Fh
        001031ac a5              ??         A5h
        001031ad f0              ??         F0h
        001031ae 9f              ??         9Fh
        001031af 9f              ??         9Fh
        001031b0 a7              ??         A7h
        001031b1 0a              ??         0Ah
        001031b2 0a              ??         0Ah
        001031b3 25              ??         25h    %
        001031b4 73              ??         73h    s
        001031b5 00              ??         00h
        001031b6 00              ??         00h
        001031b7 00              ??         00h
                             DAT_001031b8                                    XREF[2]:     mushroom:00101533(*), 
                                                                                          mushroom:0010153a(*)  
        001031b8 25              ??         25h    %
        001031b9 73              ??         73h    s
        001031ba 0a              ??         0Ah
        001031bb 5b              ??         5Bh    [
        001031bc 21              ??         21h    !
        001031bd 5d              ??         5Dh    ]
        001031be 20              ??         20h     
        001031bf 59              ??         59h    Y
        001031c0 6f              ??         6Fh    o
        001031c1 75              ??         75h    u
        001031c2 20              ??         20h     
        001031c3 63              ??         63h    c
        001031c4 68              ??         68h    h
        001031c5 6f              ??         6Fh    o
        001031c6 73              ??         73h    s
        001031c7 65              ??         65h    e
        001031c8 3a              ??         3Ah    :
        001031c9 20              ??         20h     
        001031ca 0a              ??         0Ah
        001031cb 0a              ??         0Ah
        001031cc 20              ??         20h     
        001031cd 20              ??         20h     
        001031ce 20              ??         20h     
        001031cf 20              ??         20h     
        001031d0 20              ??         20h     
        001031d1 20              ??         20h     
        001031d2 20              ??         20h     
        001031d3 20              ??         20h     
        001031d4 e2              ??         E2h
        001031d5 ac              ??         ACh
        001031d6 9b              ??         9Bh
        001031d7 e2              ??         E2h
        001031d8 ac              ??         ACh
        001031d9 9b              ??         9Bh
        001031da e2              ??         E2h
        001031db ac              ??         ACh
        001031dc 9b              ??         9Bh
        001031dd e2              ??         E2h
        001031de ac              ??         ACh
        001031df 9b              ??         9Bh
        001031e0 e2              ??         E2h
        001031e1 ac              ??         ACh
        001031e2 9b              ??         9Bh
        001031e3 e2              ??         E2h
        001031e4 ac              ??         ACh
        001031e5 9b              ??         9Bh
        001031e6 e2              ??         E2h
        001031e7 ac              ??         ACh
        001031e8 9b              ??         9Bh
        001031e9 e2              ??         E2h
        001031ea ac              ??         ACh
        001031eb 9b              ??         9Bh
        001031ec 0a              ??         0Ah
        001031ed 20              ??         20h     
        001031ee 20              ??         20h     
        001031ef 20              ??         20h     
        001031f0 20              ??         20h     
        001031f1 20              ??         20h     
        001031f2 20              ??         20h     
        001031f3 e2              ??         E2h
        001031f4 ac              ??         ACh
        001031f5 9b              ??         9Bh
        001031f6 e2              ??         E2h
        001031f7 ac              ??         ACh
        001031f8 9b              ??         9Bh
        001031f9 e2              ??         E2h
        001031fa ac              ??         ACh
        001031fb 9c              ??         9Ch
        001031fc e2              ??         E2h
        001031fd ac              ??         ACh
        001031fe 9c              ??         9Ch
        001031ff f0              ??         F0h
        00103200 9f              ??         9Fh
        00103201 9f              ??         9Fh
        00103202 a5              ??         A5h
        00103203 f0              ??         F0h
        00103204 9f              ??         9Fh
        00103205 9f              ??         9Fh
        00103206 a5              ??         A5h
        00103207 e2              ??         E2h
        00103208 ac              ??         ACh
        00103209 9c              ??         9Ch
        0010320a e2              ??         E2h
        0010320b ac              ??         ACh
        0010320c 9c              ??         9Ch
        0010320d e2              ??         E2h
        0010320e ac              ??         ACh
        0010320f 9b              ??         9Bh
        00103210 e2              ??         E2h
        00103211 ac              ??         ACh
        00103212 9b              ??         9Bh
        00103213 0a              ??         0Ah
        00103214 20              ??         20h     
        00103215 20              ??         20h     
        00103216 20              ??         20h     
        00103217 20              ??         20h     
        00103218 e2              ??         E2h
        00103219 ac              ??         ACh
        0010321a 9b              ??         9Bh
        0010321b e2              ??         E2h
        0010321c ac              ??         ACh
        0010321d 9b              ??         9Bh
        0010321e e2              ??         E2h
        0010321f ac              ??         ACh
        00103220 9c              ??         9Ch
        00103221 e2              ??         E2h
        00103222 ac              ??         ACh
        00103223 9c              ??         9Ch
        00103224 e2              ??         E2h
        00103225 ac              ??         ACh
        00103226 9c              ??         9Ch
        00103227 f0              ??         F0h
        00103228 9f              ??         9Fh
        00103229 9f              ??         9Fh
        0010322a a5              ??         A5h
        0010322b f0              ??         F0h
        0010322c 9f              ??         9Fh
        0010322d 9f              ??         9Fh
        0010322e a5              ??         A5h
        0010322f e2              ??         E2h
        00103230 ac              ??         ACh
        00103231 9c              ??         9Ch
        00103232 e2              ??         E2h
        00103233 ac              ??         ACh
        00103234 9c              ??         9Ch
        00103235 e2              ??         E2h
        00103236 ac              ??         ACh
        00103237 9c              ??         9Ch
        00103238 e2              ??         E2h
        00103239 ac              ??         ACh
        0010323a 9b              ??         9Bh
        0010323b e2              ??         E2h
        0010323c ac              ??         ACh
        0010323d 9b              ??         9Bh
        0010323e 0a              ??         0Ah
        0010323f 20              ??         20h     
        00103240 20              ??         20h     
        00103241 e2              ??         E2h
        00103242 ac              ??         ACh
        00103243 9b              ??         9Bh
        00103244 e2              ??         E2h
        00103245 ac              ??         ACh
        00103246 9b              ??         9Bh
        00103247 f0              ??         F0h
        00103248 9f              ??         9Fh
        00103249 9f              ??         9Fh
        0010324a a5              ??         A5h
        0010324b e2              ??         E2h
        0010324c ac              ??         ACh
        0010324d 9c              ??         9Ch
        0010324e e2              ??         E2h
        0010324f ac              ??         ACh
        00103250 9c              ??         9Ch
        00103251 f0              ??         F0h
        00103252 9f              ??         9Fh
        00103253 9f              ??         9Fh
        00103254 a5              ??         A5h
        00103255 f0              ??         F0h
        00103256 9f              ??         9Fh
        00103257 9f              ??         9Fh
        00103258 a5              ??         A5h
        00103259 f0              ??         F0h
        0010325a 9f              ??         9Fh
        0010325b 9f              ??         9Fh
        0010325c a5              ??         A5h
        0010325d f0              ??         F0h
        0010325e 9f              ??         9Fh
        0010325f 9f              ??         9Fh
        00103260 a5              ??         A5h
        00103261 e2              ??         E2h
        00103262 ac              ??         ACh
        00103263 9c              ??         9Ch
        00103264 e2              ??         E2h
        00103265 ac              ??         ACh
        00103266 9c              ??         9Ch
        00103267 f0              ??         F0h
        00103268 9f              ??         9Fh
        00103269 9f              ??         9Fh
        0010326a a5              ??         A5h
        0010326b e2              ??         E2h
        0010326c ac              ??         ACh
        0010326d 9b              ??         9Bh
        0010326e e2              ??         E2h
        0010326f ac              ??         ACh
        00103270 9b              ??         9Bh
        00103271 0a              ??         0Ah
        00103272 20              ??         20h     
        00103273 20              ??         20h     
        00103274 e2              ??         E2h
        00103275 ac              ??         ACh
        00103276 9b              ??         9Bh
        00103277 e2              ??         E2h
        00103278 ac              ??         ACh
        00103279 9c              ??         9Ch
        0010327a f0              ??         F0h
        0010327b 9f              ??         9Fh
        0010327c 9f              ??         9Fh
        0010327d a5              ??         A5h
        0010327e f0              ??         F0h
        0010327f 9f              ??         9Fh
        00103280 9f              ??         9Fh
        00103281 a5              ??         A5h
        00103282 f0              ??         F0h
        00103283 9f              ??         9Fh
        00103284 9f              ??         9Fh
        00103285 a5              ??         A5h
        00103286 f0              ??         F0h
        00103287 9f              ??         9Fh
        00103288 9f              ??         9Fh
        00103289 a5              ??         A5h
        0010328a f0              ??         F0h
        0010328b 9f              ??         9Fh
        0010328c 9f              ??         9Fh
        0010328d a5              ??         A5h
        0010328e f0              ??         F0h
        0010328f 9f              ??         9Fh
        00103290 9f              ??         9Fh
        00103291 a5              ??         A5h
        00103292 f0              ??         F0h
        00103293 9f              ??         9Fh
        00103294 9f              ??         9Fh
        00103295 a5              ??         A5h
        00103296 f0              ??         F0h
        00103297 9f              ??         9Fh
        00103298 9f              ??         9Fh
        00103299 a5              ??         A5h
        0010329a f0              ??         F0h
        0010329b 9f              ??         9Fh
        0010329c 9f              ??         9Fh
        0010329d a5              ??         A5h
        0010329e f0              ??         F0h
        0010329f 9f              ??         9Fh
        001032a0 9f              ??         9Fh
        001032a1 a5              ??         A5h
        001032a2 e2              ??         E2h
        001032a3 ac              ??         ACh
        001032a4 9c              ??         9Ch
        001032a5 e2              ??         E2h
        001032a6 ac              ??         ACh
        001032a7 9b              ??         9Bh
        001032a8 0a              ??         0Ah
        001032a9 e2              ??         E2h
        001032aa ac              ??         ACh
        001032ab 9b              ??         9Bh
        001032ac e2              ??         E2h
        001032ad ac              ??         ACh
        001032ae 9b              ??         9Bh
        001032af e2              ??         E2h
        001032b0 ac              ??         ACh
        001032b1 9c              ??         9Ch
        001032b2 e2              ??         E2h
        001032b3 ac              ??         ACh
        001032b4 9c              ??         9Ch
        001032b5 f0              ??         F0h
        001032b6 9f              ??         9Fh
        001032b7 9f              ??         9Fh
        001032b8 a5              ??         A5h
        001032b9 f0              ??         F0h
        001032ba 9f              ??         9Fh
        001032bb 9f              ??         9Fh
        001032bc a5              ??         A5h
        001032bd e2              ??         E2h
        001032be ac              ??         ACh
        001032bf 9c              ??         9Ch
        001032c0 e2              ??         E2h
        001032c1 ac              ??         ACh
        001032c2 9c              ??         9Ch
        001032c3 e2              ??         E2h
        001032c4 ac              ??         ACh
        001032c5 9c              ??         9Ch
        001032c6 e2              ??         E2h
        001032c7 ac              ??         ACh
        001032c8 9c              ??         9Ch
        001032c9 f0              ??         F0h
        001032ca 9f              ??         9Fh
        001032cb 9f              ??         9Fh
        001032cc a5              ??         A5h
        001032cd f0              ??         F0h
        001032ce 9f              ??         9Fh
        001032cf 9f              ??         9Fh
        001032d0 a5              ??         A5h
        001032d1 e2              ??         E2h
        001032d2 ac              ??         ACh
        001032d3 9c              ??         9Ch
        001032d4 e2              ??         E2h
        001032d5 ac              ??         ACh
        001032d6 9c              ??         9Ch
        001032d7 e2              ??         E2h
        001032d8 ac              ??         ACh
        001032d9 9b              ??         9Bh
        001032da e2              ??         E2h
        001032db ac              ??         ACh
        001032dc 9b              ??         9Bh
        001032dd 0a              ??         0Ah
        001032de e2              ??         E2h
        001032df ac              ??         ACh
        001032e0 9b              ??         9Bh
        001032e1 e2              ??         E2h
        001032e2 ac              ??         ACh
        001032e3 9c              ??         9Ch
        001032e4 e2              ??         E2h
        001032e5 ac              ??         ACh
        001032e6 9c              ??         9Ch
        001032e7 e2              ??         E2h
        001032e8 ac              ??         ACh
        001032e9 9c              ??         9Ch
        001032ea f0              ??         F0h
        001032eb 9f              ??         9Fh
        001032ec 9f              ??         9Fh
        001032ed a5              ??         A5h
        001032ee e2              ??         E2h
        001032ef ac              ??         ACh
        001032f0 9c              ??         9Ch
        001032f1 e2              ??         E2h
        001032f2 ac              ??         ACh
        001032f3 9c              ??         9Ch
        001032f4 e2              ??         E2h
        001032f5 ac              ??         ACh
        001032f6 9c              ??         9Ch
        001032f7 e2              ??         E2h
        001032f8 ac              ??         ACh
        001032f9 9c              ??         9Ch
        001032fa e2              ??         E2h
        001032fb ac              ??         ACh
        001032fc 9c              ??         9Ch
        001032fd e2              ??         E2h
        001032fe ac              ??         ACh
        001032ff 9c              ??         9Ch
        00103300 f0              ??         F0h
        00103301 9f              ??         9Fh
        00103302 9f              ??         9Fh
        00103303 a5              ??         A5h
        00103304 e2              ??         E2h
        00103305 ac              ??         ACh
        00103306 9c              ??         9Ch
        00103307 e2              ??         E2h
        00103308 ac              ??         ACh
        00103309 9c              ??         9Ch
        0010330a e2              ??         E2h
        0010330b ac              ??         ACh
        0010330c 9c              ??         9Ch
        0010330d e2              ??         E2h
        0010330e ac              ??         ACh
        0010330f 9b              ??         9Bh
        00103310 0a              ??         0Ah
        00103311 e2              ??         E2h
        00103312 ac              ??         ACh
        00103313 9b              ??         9Bh
        00103314 e2              ??         E2h
        00103315 ac              ??         ACh
        00103316 9c              ??         9Ch
        00103317 e2              ??         E2h
        00103318 ac              ??         ACh
        00103319 9c              ??         9Ch
        0010331a e2              ??         E2h
        0010331b ac              ??         ACh
        0010331c 9c              ??         9Ch
        0010331d f0              ??         F0h
        0010331e 9f              ??         9Fh
        0010331f 9f              ??         9Fh
        00103320 a5              ??         A5h
        00103321 e2              ??         E2h
        00103322 ac              ??         ACh
        00103323 9c              ??         9Ch
        00103324 e2              ??         E2h
        00103325 ac              ??         ACh
        00103326 9c              ??         9Ch
        00103327 e2              ??         E2h
        00103328 ac              ??         ACh
        00103329 9c              ??         9Ch
        0010332a e2              ??         E2h
        0010332b ac              ??         ACh
        0010332c 9c              ??         9Ch
        0010332d e2              ??         E2h
        0010332e ac              ??         ACh
        0010332f 9c              ??         9Ch
        00103330 e2              ??         E2h
        00103331 ac              ??         ACh
        00103332 9c              ??         9Ch
        00103333 f0              ??         F0h
        00103334 9f              ??         9Fh
        00103335 9f              ??         9Fh
        00103336 a5              ??         A5h
        00103337 e2              ??         E2h
        00103338 ac              ??         ACh
        00103339 9c              ??         9Ch
        0010333a e2              ??         E2h
        0010333b ac              ??         ACh
        0010333c 9c              ??         9Ch
        0010333d e2              ??         E2h
        0010333e ac              ??         ACh
        0010333f 9c              ??         9Ch
        00103340 e2              ??         E2h
        00103341 ac              ??         ACh
        00103342 9b              ??         9Bh
        00103343 0a              ??         0Ah
        00103344 e2              ??         E2h
        00103345 ac              ??         ACh
        00103346 9b              ??         9Bh
        00103347 e2              ??         E2h
        00103348 ac              ??         ACh
        00103349 9c              ??         9Ch
        0010334a e2              ??         E2h
        0010334b ac              ??         ACh
        0010334c 9c              ??         9Ch
        0010334d f0              ??         F0h
        0010334e 9f              ??         9Fh
        0010334f 9f              ??         9Fh
        00103350 a5              ??         A5h
        00103351 f0              ??         F0h
        00103352 9f              ??         9Fh
        00103353 9f              ??         9Fh
        00103354 a5              ??         A5h
        00103355 e2              ??         E2h
        00103356 ac              ??         ACh
        00103357 9c              ??         9Ch
        00103358 e2              ??         E2h
        00103359 ac              ??         ACh
        0010335a 9c              ??         9Ch
        0010335b e2              ??         E2h
        0010335c ac              ??         ACh
        0010335d 9c              ??         9Ch
        0010335e e2              ??         E2h
        0010335f ac              ??         ACh
        00103360 9c              ??         9Ch
        00103361 e2              ??         E2h
        00103362 ac              ??         ACh
        00103363 9c              ??         9Ch
        00103364 e2              ??         E2h
        00103365 ac              ??         ACh
        00103366 9c              ??         9Ch
        00103367 f0              ??         F0h
        00103368 9f              ??         9Fh
        00103369 9f              ??         9Fh
        0010336a a5              ??         A5h
        0010336b f0              ??         F0h
        0010336c 9f              ??         9Fh
        0010336d 9f              ??         9Fh
        0010336e a5              ??         A5h
        0010336f e2              ??         E2h
        00103370 ac              ??         ACh
        00103371 9c              ??         9Ch
        00103372 e2              ??         E2h
        00103373 ac              ??         ACh
        00103374 9c              ??         9Ch
        00103375 e2              ??         E2h
        00103376 ac              ??         ACh
        00103377 9b              ??         9Bh
        00103378 0a              ??         0Ah
        00103379 e2              ??         E2h
        0010337a ac              ??         ACh
        0010337b 9b              ??         9Bh
        0010337c f0              ??         F0h
        0010337d 9f              ??         9Fh
        0010337e 9f              ??         9Fh
        0010337f a5              ??         A5h
        00103380 f0              ??         F0h
        00103381 9f              ??         9Fh
        00103382 9f              ??         9Fh
        00103383 a5              ??         A5h
        00103384 f0              ??         F0h
        00103385 9f              ??         9Fh
        00103386 9f              ??         9Fh
        00103387 a5              ??         A5h
        00103388 f0              ??         F0h
        00103389 9f              ??         9Fh
        0010338a 9f              ??         9Fh
        0010338b a5              ??         A5h
        0010338c f0              ??         F0h
        0010338d 9f              ??         9Fh
        0010338e 9f              ??         9Fh
        0010338f a5              ??         A5h
        00103390 e2              ??         E2h
        00103391 ac              ??         ACh
        00103392 9c              ??         9Ch
        00103393 e2              ??         E2h
        00103394 ac              ??         ACh
        00103395 9c              ??         9Ch
        00103396 e2              ??         E2h
        00103397 ac              ??         ACh
        00103398 9c              ??         9Ch
        00103399 e2              ??         E2h
        0010339a ac              ??         ACh
        0010339b 9c              ??         9Ch
        0010339c f0              ??         F0h
        0010339d 9f              ??         9Fh
        0010339e 9f              ??         9Fh
        0010339f a5              ??         A5h
        001033a0 f0              ??         F0h
        001033a1 9f              ??         9Fh
        001033a2 9f              ??         9Fh
        001033a3 a5              ??         A5h
        001033a4 f0              ??         F0h
        001033a5 9f              ??         9Fh
        001033a6 9f              ??         9Fh
        001033a7 a5              ??         A5h
        001033a8 f0              ??         F0h
        001033a9 9f              ??         9Fh
        001033aa 9f              ??         9Fh
        001033ab a5              ??         A5h
        001033ac f0              ??         F0h
        001033ad 9f              ??         9Fh
        001033ae 9f              ??         9Fh
        001033af a5              ??         A5h
        001033b0 e2              ??         E2h
        001033b1 ac              ??         ACh
        001033b2 9b              ??         9Bh
        001033b3 0a              ??         0Ah
        001033b4 e2              ??         E2h
        001033b5 ac              ??         ACh
        001033b6 9b              ??         9Bh
        001033b7 f0              ??         F0h
        001033b8 9f              ??         9Fh
        001033b9 9f              ??         9Fh
        001033ba a5              ??         A5h
        001033bb f0              ??         F0h
        001033bc 9f              ??         9Fh
        001033bd 9f              ??         9Fh
        001033be a5              ??         A5h
        001033bf e2              ??         E2h
        001033c0 ac              ??         ACh
        001033c1 9b              ??         9Bh
        001033c2 e2              ??         E2h
        001033c3 ac              ??         ACh
        001033c4 9b              ??         9Bh
        001033c5 e2              ??         E2h
        001033c6 ac              ??         ACh
        001033c7 9b              ??         9Bh
        001033c8 e2              ??         E2h
        001033c9 ac              ??         ACh
        001033ca 9b              ??         9Bh
        001033cb e2              ??         E2h
        001033cc ac              ??         ACh
        001033cd 9b              ??         9Bh
        001033ce e2              ??         E2h
        001033cf ac              ??         ACh
        001033d0 9b              ??         9Bh
        001033d1 e2              ??         E2h
        001033d2 ac              ??         ACh
        001033d3 9b              ??         9Bh
        001033d4 e2              ??         E2h
        001033d5 ac              ??         ACh
        001033d6 9b              ??         9Bh
        001033d7 e2              ??         E2h
        001033d8 ac              ??         ACh
        001033d9 9b              ??         9Bh
        001033da e2              ??         E2h
        001033db ac              ??         ACh
        001033dc 9b              ??         9Bh
        001033dd f0              ??         F0h
        001033de 9f              ??         9Fh
        001033df 9f              ??         9Fh
        001033e0 a5              ??         A5h
        001033e1 f0              ??         F0h
        001033e2 9f              ??         9Fh
        001033e3 9f              ??         9Fh
        001033e4 a5              ??         A5h
        001033e5 e2              ??         E2h
        001033e6 ac              ??         ACh
        001033e7 9b              ??         9Bh
        001033e8 0a              ??         0Ah
        001033e9 e2              ??         E2h
        001033ea ac              ??         ACh
        001033eb 9b              ??         9Bh
        001033ec e2              ??         E2h
        001033ed ac              ??         ACh
        001033ee 9b              ??         9Bh
        001033ef e2              ??         E2h
        001033f0 ac              ??         ACh
        001033f1 9b              ??         9Bh
        001033f2 e2              ??         E2h
        001033f3 ac              ??         ACh
        001033f4 9b              ??         9Bh
        001033f5 e2              ??         E2h
        001033f6 ac              ??         ACh
        001033f7 9c              ??         9Ch
        001033f8 e2              ??         E2h
        001033f9 ac              ??         ACh
        001033fa 9c              ??         9Ch
        001033fb e2              ??         E2h
        001033fc ac              ??         ACh
        001033fd 9b              ??         9Bh
        001033fe e2              ??         E2h
        001033ff ac              ??         ACh
        00103400 9c              ??         9Ch
        00103401 e2              ??         E2h
        00103402 ac              ??         ACh
        00103403 9c              ??         9Ch
        00103404 e2              ??         E2h
        00103405 ac              ??         ACh
        00103406 9b              ??         9Bh
        00103407 e2              ??         E2h
        00103408 ac              ??         ACh
        00103409 9c              ??         9Ch
        0010340a e2              ??         E2h
        0010340b ac              ??         ACh
        0010340c 9c              ??         9Ch
        0010340d e2              ??         E2h
        0010340e ac              ??         ACh
        0010340f 9b              ??         9Bh
        00103410 e2              ??         E2h
        00103411 ac              ??         ACh
        00103412 9b              ??         9Bh
        00103413 e2              ??         E2h
        00103414 ac              ??         ACh
        00103415 9b              ??         9Bh
        00103416 e2              ??         E2h
        00103417 ac              ??         ACh
        00103418 9b              ??         9Bh
        00103419 0a              ??         0Ah
        0010341a 20              ??         20h     
        0010341b 20              ??         20h     
        0010341c e2              ??         E2h
        0010341d ac              ??         ACh
        0010341e 9b              ??         9Bh
        0010341f e2              ??         E2h
        00103420 ac              ??         ACh
        00103421 9b              ??         9Bh
        00103422 e2              ??         E2h
        00103423 ac              ??         ACh
        00103424 9c              ??         9Ch
        00103425 e2              ??         E2h
        00103426 ac              ??         ACh
        00103427 9c              ??         9Ch
        00103428 e2              ??         E2h
        00103429 ac              ??         ACh
        0010342a 9c              ??         9Ch
        0010342b e2              ??         E2h
        0010342c ac              ??         ACh
        0010342d 9b              ??         9Bh
        0010342e e2              ??         E2h
        0010342f ac              ??         ACh
        00103430 9c              ??         9Ch
        00103431 e2              ??         E2h
        00103432 ac              ??         ACh
        00103433 9c              ??         9Ch
        00103434 e2              ??         E2h
        00103435 ac              ??         ACh
        00103436 9b              ??         9Bh
        00103437 e2              ??         E2h
        00103438 ac              ??         ACh
        00103439 9c              ??         9Ch
        0010343a e2              ??         E2h
        0010343b ac              ??         ACh
        0010343c 9c              ??         9Ch
        0010343d e2              ??         E2h
        0010343e ac              ??         ACh
        0010343f 9c              ??         9Ch
        00103440 e2              ??         E2h
        00103441 ac              ??         ACh
        00103442 9b              ??         9Bh
        00103443 e2              ??         E2h
        00103444 ac              ??         ACh
        00103445 9b              ??         9Bh
        00103446 0a              ??         0Ah
        00103447 20              ??         20h     
        00103448 20              ??         20h     
        00103449 20              ??         20h     
        0010344a 20              ??         20h     
        0010344b e2              ??         E2h
        0010344c ac              ??         ACh
        0010344d 9b              ??         9Bh
        0010344e e2              ??         E2h
        0010344f ac              ??         ACh
        00103450 9c              ??         9Ch
        00103451 e2              ??         E2h
        00103452 ac              ??         ACh
        00103453 9c              ??         9Ch
        00103454 e2              ??         E2h
        00103455 ac              ??         ACh
        00103456 9c              ??         9Ch
        00103457 e2              ??         E2h
        00103458 ac              ??         ACh
        00103459 9c              ??         9Ch
        0010345a e2              ??         E2h
        0010345b ac              ??         ACh
        0010345c 9c              ??         9Ch
        0010345d e2              ??         E2h
        0010345e ac              ??         ACh
        0010345f 9c              ??         9Ch
        00103460 e2              ??         E2h
        00103461 ac              ??         ACh
        00103462 9c              ??         9Ch
        00103463 e2              ??         E2h
        00103464 ac              ??         ACh
        00103465 9c              ??         9Ch
        00103466 e2              ??         E2h
        00103467 ac              ??         ACh
        00103468 9c              ??         9Ch
        00103469 e2              ??         E2h
        0010346a ac              ??         ACh
        0010346b 9c              ??         9Ch
        0010346c e2              ??         E2h
        0010346d ac              ??         ACh
        0010346e 9b              ??         9Bh
        0010346f 0a              ??         0Ah
        00103470 20              ??         20h     
        00103471 20              ??         20h     
        00103472 20              ??         20h     
        00103473 20              ??         20h     
        00103474 e2              ??         E2h
        00103475 ac              ??         ACh
        00103476 9b              ??         9Bh
        00103477 e2              ??         E2h
        00103478 ac              ??         ACh
        00103479 9b              ??         9Bh
        0010347a e2              ??         E2h
        0010347b ac              ??         ACh
        0010347c 9c              ??         9Ch
        0010347d e2              ??         E2h
        0010347e ac              ??         ACh
        0010347f 9c              ??         9Ch
        00103480 e2              ??         E2h
        00103481 ac              ??         ACh
        00103482 9c              ??         9Ch
        00103483 e2              ??         E2h
        00103484 ac              ??         ACh
        00103485 9c              ??         9Ch
        00103486 e2              ??         E2h
        00103487 ac              ??         ACh
        00103488 9c              ??         9Ch
        00103489 e2              ??         E2h
        0010348a ac              ??         ACh
        0010348b 9c              ??         9Ch
        0010348c e2              ??         E2h
        0010348d ac              ??         ACh
        0010348e 9c              ??         9Ch
        0010348f e2              ??         E2h
        00103490 ac              ??         ACh
        00103491 9c              ??         9Ch
        00103492 e2              ??         E2h
        00103493 ac              ??         ACh
        00103494 9b              ??         9Bh
        00103495 e2              ??         E2h
        00103496 ac              ??         ACh
        00103497 9b              ??         9Bh
        00103498 0a              ??         0Ah
        00103499 20              ??         20h     
        0010349a 20              ??         20h     
        0010349b 20              ??         20h     
        0010349c 20              ??         20h     
        0010349d 20              ??         20h     
        0010349e 20              ??         20h     
        0010349f e2              ??         E2h
        001034a0 ac              ??         ACh
        001034a1 9b              ??         9Bh
        001034a2 e2              ??         E2h
        001034a3 ac              ??         ACh
        001034a4 9b              ??         9Bh
        001034a5 e2              ??         E2h
        001034a6 ac              ??         ACh
        001034a7 9b              ??         9Bh
        001034a8 e2              ??         E2h
        001034a9 ac              ??         ACh
        001034aa 9b              ??         9Bh
        001034ab e2              ??         E2h
        001034ac ac              ??         ACh
        001034ad 9b              ??         9Bh
        001034ae e2              ??         E2h
        001034af ac              ??         ACh
        001034b0 9b              ??         9Bh
        001034b1 e2              ??         E2h
        001034b2 ac              ??         ACh
        001034b3 9b              ??         9Bh
        001034b4 e2              ??         E2h
        001034b5 ac              ??         ACh
        001034b6 9b              ??         9Bh
        001034b7 e2              ??         E2h
        001034b8 ac              ??         ACh
        001034b9 9b              ??         9Bh
        001034ba e2              ??         E2h
        001034bb ac              ??         ACh
        001034bc 9b              ??         9Bh
        001034bd 0a              ??         0Ah
        001034be 0a              ??         0Ah
        001034bf 25              ??         25h    %
        001034c0 73              ??         73h    s
        001034c1 00              ??         00h
        001034c2 00              ??         00h
        001034c3 00              ??         00h
        001034c4 00              ??         00h
        001034c5 00              ??         00h
        001034c6 00              ??         00h
        001034c7 00              ??         00h
                             s_%s[!]_Enter_name_for_your_Power_U_001034c8    XREF[2]:     custom:0010159a(*), 
                                                                                          custom:001015a1(*)  
        001034c8 0a 25 73        ds         "\n%s[!] Enter name for your Power Up: "
                 5b 21 5d 
                 20 45 6e 
        001034ee 00              ??         00h
        001034ef 00              ??         00h
                             DAT_001034f0                                    XREF[2]:     custom:001015c4(*), 
                                                                                          custom:001015cb(*)  
        001034f0 0a              ??         0Ah
        001034f1 20              ??         20h     
        001034f2 20              ??         20h     
        001034f3 20              ??         20h     
        001034f4 20              ??         20h     
        001034f5 20              ??         20h     
        001034f6 20              ??         20h     
        001034f7 20              ??         20h     
        001034f8 20              ??         20h     
        001034f9 20              ??         20h     
        001034fa 20              ??         20h     
        001034fb e2              ??         E2h
        001034fc ac              ??         ACh
        001034fd 9b              ??         9Bh
        001034fe 0a              ??         0Ah
        001034ff 20              ??         20h     
        00103500 20              ??         20h     
        00103501 20              ??         20h     
        00103502 20              ??         20h     
        00103503 20              ??         20h     
        00103504 20              ??         20h     
        00103505 20              ??         20h     
        00103506 20              ??         20h     
        00103507 e2              ??         E2h
        00103508 ac              ??         ACh
        00103509 9b              ??         9Bh
        0010350a f0              ??         F0h
        0010350b 9f              ??         9Fh
        0010350c 9f              ??         9Fh
        0010350d a8              ??         A8h
        0010350e e2              ??         E2h
        0010350f ac              ??         ACh
        00103510 9b              ??         9Bh
        00103511 0a              ??         0Ah
        00103512 20              ??         20h     
        00103513 20              ??         20h     
        00103514 20              ??         20h     
        00103515 20              ??         20h     
        00103516 20              ??         20h     
        00103517 20              ??         20h     
        00103518 e2              ??         E2h
        00103519 ac              ??         ACh
        0010351a 9b              ??         9Bh
        0010351b f0              ??         F0h
        0010351c 9f              ??         9Fh
        0010351d 9f              ??         9Fh
        0010351e a8              ??         A8h
        0010351f f0              ??         F0h
        00103520 9f              ??         9Fh
        00103521 9f              ??         9Fh
        00103522 a8              ??         A8h
        00103523 f0              ??         F0h
        00103524 9f              ??         9Fh
        00103525 9f              ??         9Fh
        00103526 a8              ??         A8h
        00103527 e2              ??         E2h
        00103528 ac              ??         ACh
        00103529 9b              ??         9Bh
        0010352a 0a              ??         0Ah
        0010352b e2              ??         E2h
        0010352c ac              ??         ACh
        0010352d 9b              ??         9Bh
        0010352e e2              ??         E2h
        0010352f ac              ??         ACh
        00103530 9b              ??         9Bh
        00103531 e2              ??         E2h
        00103532 ac              ??         ACh
        00103533 9b              ??         9Bh
        00103534 e2              ??         E2h
        00103535 ac              ??         ACh
        00103536 9b              ??         9Bh
        00103537 f0              ??         F0h
        00103538 9f              ??         9Fh
        00103539 9f              ??         9Fh
        0010353a a8              ??         A8h
        0010353b f0              ??         F0h
        0010353c 9f              ??         9Fh
        0010353d 9f              ??         9Fh
        0010353e a8              ??         A8h
        0010353f f0              ??         F0h
        00103540 9f              ??         9Fh
        00103541 9f              ??         9Fh
        00103542 a8              ??         A8h
        00103543 e2              ??         E2h
        00103544 ac              ??         ACh
        00103545 9b              ??         9Bh
        00103546 e2              ??         E2h
        00103547 ac              ??         ACh
        00103548 9b              ??         9Bh
        00103549 e2              ??         E2h
        0010354a ac              ??         ACh
        0010354b 9b              ??         9Bh
        0010354c e2              ??         E2h
        0010354d ac              ??         ACh
        0010354e 9b              ??         9Bh
        0010354f 0a              ??         0Ah
        00103550 e2              ??         E2h
        00103551 ac              ??         ACh
        00103552 9b              ??         9Bh
        00103553 f0              ??         F0h
        00103554 9f              ??         9Fh
        00103555 9f              ??         9Fh
        00103556 a8              ??         A8h
        00103557 f0              ??         F0h
        00103558 9f              ??         9Fh
        00103559 9f              ??         9Fh
        0010355a a8              ??         A8h
        0010355b f0              ??         F0h
        0010355c 9f              ??         9Fh
        0010355d 9f              ??         9Fh
        0010355e a8              ??         A8h
        0010355f e2              ??         E2h
        00103560 ac              ??         ACh
        00103561 9b              ??         9Bh
        00103562 f0              ??         F0h
        00103563 9f              ??         9Fh
        00103564 9f              ??         9Fh
        00103565 a8              ??         A8h
        00103566 e2              ??         E2h
        00103567 ac              ??         ACh
        00103568 9b              ??         9Bh
        00103569 f0              ??         F0h
        0010356a 9f              ??         9Fh
        0010356b 9f              ??         9Fh
        0010356c a8              ??         A8h
        0010356d f0              ??         F0h
        0010356e 9f              ??         9Fh
        0010356f 9f              ??         9Fh
        00103570 a8              ??         A8h
        00103571 f0              ??         F0h
        00103572 9f              ??         9Fh
        00103573 9f              ??         9Fh
        00103574 a8              ??         A8h
        00103575 e2              ??         E2h
        00103576 ac              ??         ACh
        00103577 9b              ??         9Bh
        00103578 0a              ??         0Ah
        00103579 20              ??         20h     
        0010357a 20              ??         20h     
        0010357b e2              ??         E2h
        0010357c ac              ??         ACh
        0010357d 9b              ??         9Bh
        0010357e f0              ??         F0h
        0010357f 9f              ??         9Fh
        00103580 9f              ??         9Fh
        00103581 a8              ??         A8h
        00103582 f0              ??         F0h
        00103583 9f              ??         9Fh
        00103584 9f              ??         9Fh
        00103585 a8              ??         A8h
        00103586 e2              ??         E2h
        00103587 ac              ??         ACh
        00103588 9b              ??         9Bh
        00103589 f0              ??         F0h
        0010358a 9f              ??         9Fh
        0010358b 9f              ??         9Fh
        0010358c a8              ??         A8h
        0010358d e2              ??         E2h
        0010358e ac              ??         ACh
        0010358f 9b              ??         9Bh
        00103590 f0              ??         F0h
        00103591 9f              ??         9Fh
        00103592 9f              ??         9Fh
        00103593 a8              ??         A8h
        00103594 f0              ??         F0h
        00103595 9f              ??         9Fh
        00103596 9f              ??         9Fh
        00103597 a8              ??         A8h
        00103598 e2              ??         E2h
        00103599 ac              ??         ACh
        0010359a 9b              ??         9Bh
        0010359b 0a              ??         0Ah
        0010359c 20              ??         20h     
        0010359d 20              ??         20h     
        0010359e 20              ??         20h     
        0010359f 20              ??         20h     
        001035a0 e2              ??         E2h
        001035a1 ac              ??         ACh
        001035a2 9b              ??         9Bh
        001035a3 f0              ??         F0h
        001035a4 9f              ??         9Fh
        001035a5 9f              ??         9Fh
        001035a6 a8              ??         A8h
        001035a7 f0              ??         F0h
        001035a8 9f              ??         9Fh
        001035a9 9f              ??         9Fh
        001035aa a8              ??         A8h
        001035ab f0              ??         F0h
        001035ac 9f              ??         9Fh
        001035ad 9f              ??         9Fh
        001035ae a8              ??         A8h
        001035af f0              ??         F0h
        001035b0 9f              ??         9Fh
        001035b1 9f              ??         9Fh
        001035b2 a8              ??         A8h
        001035b3 f0              ??         F0h
        001035b4 9f              ??         9Fh
        001035b5 9f              ??         9Fh
        001035b6 a8              ??         A8h
        001035b7 e2              ??         E2h
        001035b8 ac              ??         ACh
        001035b9 9b              ??         9Bh
        001035ba 0a              ??         0Ah
        001035bb 20              ??         20h     
        001035bc 20              ??         20h     
        001035bd 20              ??         20h     
        001035be 20              ??         20h     
        001035bf e2              ??         E2h
        001035c0 ac              ??         ACh
        001035c1 9b              ??         9Bh
        001035c2 f0              ??         F0h
        001035c3 9f              ??         9Fh
        001035c4 9f              ??         9Fh
        001035c5 a8              ??         A8h
        001035c6 f0              ??         F0h
        001035c7 9f              ??         9Fh
        001035c8 9f              ??         9Fh
        001035c9 a8              ??         A8h
        001035ca f0              ??         F0h
        001035cb 9f              ??         9Fh
        001035cc 9f              ??         9Fh
        001035cd a8              ??         A8h
        001035ce f0              ??         F0h
        001035cf 9f              ??         9Fh
        001035d0 9f              ??         9Fh
        001035d1 a8              ??         A8h
        001035d2 f0              ??         F0h
        001035d3 9f              ??         9Fh
        001035d4 9f              ??         9Fh
        001035d5 a8              ??         A8h
        001035d6 e2              ??         E2h
        001035d7 ac              ??         ACh
        001035d8 9b              ??         9Bh
        001035d9 0a              ??         0Ah
        001035da 20              ??         20h     
        001035db 20              ??         20h     
        001035dc e2              ??         E2h
        001035dd ac              ??         ACh
        001035de 9b              ??         9Bh
        001035df f0              ??         F0h
        001035e0 9f              ??         9Fh
        001035e1 9f              ??         9Fh
        001035e2 a8              ??         A8h
        001035e3 f0              ??         F0h
        001035e4 9f              ??         9Fh
        001035e5 9f              ??         9Fh
        001035e6 a8              ??         A8h
        001035e7 e2              ??         E2h
        001035e8 ac              ??         ACh
        001035e9 9b              ??         9Bh
        001035ea e2              ??         E2h
        001035eb ac              ??         ACh
        001035ec 9b              ??         9Bh
        001035ed e2              ??         E2h
        001035ee ac              ??         ACh
        001035ef 9b              ??         9Bh
        001035f0 f0              ??         F0h
        001035f1 9f              ??         9Fh
        001035f2 9f              ??         9Fh
        001035f3 a8              ??         A8h
        001035f4 f0              ??         F0h
        001035f5 9f              ??         9Fh
        001035f6 9f              ??         9Fh
        001035f7 a8              ??         A8h
        001035f8 e2              ??         E2h
        001035f9 ac              ??         ACh
        001035fa 9b              ??         9Bh
        001035fb 0a              ??         0Ah
        001035fc 20              ??         20h     
        001035fd 20              ??         20h     
        001035fe e2              ??         E2h
        001035ff ac              ??         ACh
        00103600 9b              ??         9Bh
        00103601 f0              ??         F0h
        00103602 9f              ??         9Fh
        00103603 9f              ??         9Fh
        00103604 a8              ??         A8h
        00103605 e2              ??         E2h
        00103606 ac              ??         ACh
        00103607 9b              ??         9Bh
        00103608 20              ??         20h     
        00103609 20              ??         20h     
        0010360a 20              ??         20h     
        0010360b 20              ??         20h     
        0010360c 20              ??         20h     
        0010360d 20              ??         20h     
        0010360e e2              ??         E2h
        0010360f ac              ??         ACh
        00103610 9b              ??         9Bh
        00103611 f0              ??         F0h
        00103612 9f              ??         9Fh
        00103613 9f              ??         9Fh
        00103614 a8              ??         A8h
        00103615 e2              ??         E2h
        00103616 ac              ??         ACh
        00103617 9b              ??         9Bh
        00103618 0a              ??         0Ah
        00103619 20              ??         20h     
        0010361a 20              ??         20h     
        0010361b 20              ??         20h     
        0010361c 20              ??         20h     
        0010361d e2              ??         E2h
        0010361e ac              ??         ACh
        0010361f 9b              ??         9Bh
        00103620 20              ??         20h     
        00103621 20              ??         20h     
        00103622 20              ??         20h     
        00103623 20              ??         20h     
        00103624 20              ??         20h     
        00103625 20              ??         20h     
        00103626 20              ??         20h     
        00103627 20              ??         20h     
        00103628 20              ??         20h     
        00103629 20              ??         20h     
        0010362a e2              ??         E2h
        0010362b ac              ??         ACh
        0010362c 9b              ??         9Bh
        0010362d 00              ??         00h
        0010362e 00              ??         00h
        0010362f 00              ??         00h
                             s_%s[!]_You_start_the_race_with:_00103630       XREF[2]:     custom:001015dd(*), 
                                                                                          custom:001015e4(*)  
        00103630 0a 25 73        ds         "\n%s[!] You start the race with: "
                 5b 21 5d 
                 20 59 6f 
                             DAT_00103651                                    XREF[2]:     race:00101635(*), 
                                                                                          race:0010163c(*)  
        00103651 4c              ??         4Ch    L
        00103652 45              ??         45h    E
        00103653 46              ??         46h    F
        00103654 54              ??         54h    T
        00103655 00              ??         00h
                             s_RIGHT_00103656                                XREF[2]:     race:00101640(*), 
                                                                                          race:00101647(*)  
        00103656 52 49 47        ds         "RIGHT"
                 48 54 00
        0010365c 00              ??         00h
        0010365d 00              ??         00h
        0010365e 00              ??         00h
        0010365f 00              ??         00h
                             s_%s_[*]_There_are_7_some_turns_(L_00103660     XREF[2]:     race:0010165f(*), 
                                                                                          race:00101666(*)  
        00103660 25 73 0a        ds         "%s\n\n[*] There are 7 some turns (Left of Rig
                 0a 5b 2a 
                 5d 20 54 
                             s_[!]_Warning!_%s_turn_ahead:_001036b6          XREF[2]:     race:001016bd(*), 
                                                                                          race:001016c4(*)  
        001036b6 0a 5b 21        ds         "\n[!] Warning! %s turn ahead: "
                 5d 20 57 
                 61 72 6e 
                             DAT_001036d4                                    XREF[4]:     race:0010170e(*), 
                                                                                          race:00101715(*), 
                                                                                          race:00101854(*), 
                                                                                          race:0010185b(*)  
        001036d4 1b              ??         1Bh
        001036d5 5b              ??         5Bh    [
        001036d6 31              ??         31h    1
        001036d7 3b              ??         3Bh    ;
        001036d8 33              ??         33h    3
        001036d9 32              ??         32h    2
        001036da 6d              ??         6Dh    m
        001036db 00              ??         00h
                             s_%s[+]_Nice!_%s_001036dc                       XREF[2]:     race:00101718(*), 
                                                                                          race:0010171f(*)  
        001036dc 0a 25 73        ds         "\n%s[+] Nice!\n%s"
                 5b 2b 5d 
                 20 4e 69 
        001036ec 00              ??         00h
        001036ed 00              ??         00h
        001036ee 00              ??         00h
        001036ef 00              ??         00h
                             s_WE_CRASHED_AND_LOST_THE_RACE!_001036f0        XREF[2]:     race:0010173d(*), 
                                                                                          race:00101744(*)  
        001036f0 57 45 20        ds         "WE CRASHED AND LOST THE RACE!\n"
                 43 52 41 
                 53 48 45 
                             DAT_0010370f                                    XREF[2]:     race:00101761(*), 
                                                                                          race:00101768(*)  
        0010370f 1b              ??         1Bh
        00103710 5b              ??         5Bh    [
        00103711 31              ??         31h    1
        00103712 3b              ??         3Bh    ;
        00103713 33              ??         33h    3
        00103714 35              ??         35h    5
        00103715 6d              ??         6Dh    m
        00103716 00              ??         00h
        00103717 00              ??         00h
                             s_[!]_You_are_second!_Do_you_want_t_00103718    XREF[2]:     race:0010176b(*), 
                                                                                          race:00101772(*)  
        00103718 0a 5b 21        ds         "\n[!] You are second! Do you want to use your
                 5d 20 59 
                 6f 75 20 
        0010375a 00              ??         00h
        0010375b 00              ??         00h
        0010375c 00              ??         00h
        0010375d 00              ??         00h
        0010375e 00              ??         00h
        0010375f 00              ??         00h
                             s_%s[+]_BOOM!_You_finished_1st!!!_00103760      XREF[2]:     race:0010185e(*), 
                                                                                          race:00101865(*)  
        00103760 0a 25 73        ds         "\n%s[+] BOOM! You finished 1st!!!\n\n"
                 5b 2b 5d 
                 20 42 4f 
        00103783 00              ??         00h
        00103784 00              ??         00h
        00103785 00              ??         00h
        00103786 00              ??         00h
        00103787 00              ??         00h
                             s_[*]_Please_tell_us_a_few_things_a_00103788    XREF[2]:     race:00101872(*), 
                                                                                          race:00101879(*)  
        00103788 5b 2a 5d        ds         "[*] Please tell us a few things about your vi
                 20 50 6c 
                 65 61 73 
                             s_[!]_Choose_power_up:_001037bd                 XREF[2]:     power_up:001018da(*), 
                                                                                          power_up:001018e1(*)  
        001037bd 5b 21 5d        ds         "[!] Choose power up: \n\n"
                 20 43 68 
                 6f 6f 73 
                             s_1._Banana_peel_001037d5                       XREF[2]:     power_up:001018f3(*), 
                                                                                          power_up:001018fa(*)  
        001037d5 31 2e 20        ds         "1. Banana peel\n"
                 42 61 6e 
                 61 6e 61 
                             s_2._Rocket_001037e5                            XREF[2]:     power_up:0010190c(*), 
                                                                                          power_up:00101913(*)  
        001037e5 32 2e 20        ds         "2. Rocket\n"
                 52 6f 63 
                 6b 65 74 
                             s_3._Mushroom_001037f0                          XREF[2]:     power_up:00101925(*), 
                                                                                          power_up:0010192c(*)  
        001037f0 33 2e 20        ds         "3. Mushroom\n"
                 4d 75 73 
                 68 72 6f 
                             s_4._Other_001037fd                             XREF[2]:     power_up:0010193e(*), 
                                                                                          power_up:00101945(*)  
        001037fd 34 2e 20        ds         "4. Other\n\n"
                 4f 74 68 
                 65 72 0a 
                             DAT_00103808                                    XREF[2]:     power_up:00101957(*), 
                                                                                          power_up:0010195e(*)  
        00103808 3e              ??         3Eh    >
        00103809 20              ??         20h     
        0010380a 00              ??         00h
        0010380b 00              ??         00h
        0010380c 00              ??         00h
        0010380d 00              ??         00h
        0010380e 00              ??         00h
        0010380f 00              ??         00h
                             s_Invalid_Power_Up!_Are_you_trying_00103810     XREF[2]:     power_up:001019b7(*), 
                                                                                          power_up:001019be(*)  
        00103810 49 6e 76        ds         "Invalid Power Up! Are you trying to cheat?!\n"
                 61 6c 69 
                 64 20 50 
                             **************************************************************
                             * std::__detail::__integer_to_chars_is_unsigned<unsigned ... *
                             **************************************************************
                             _ZNSt8__detail30__integer_to_chars_is_unsigned
                             std::__detail::__integer_to_chars_is_unsigned<>
        0010383d 01              undefined1 01h
                             **************************************************************
                             * std::__detail::__integer_to_chars_is_unsigned<unsigned ... *
                             **************************************************************
                             _ZNSt8__detail30__integer_to_chars_is_unsigned
                             std::__detail::__integer_to_chars_is_unsigned<>
        0010383e 01              undefined1 01h
                             **************************************************************
                             * std::__detail::__integer_to_chars_is_unsigned<unsigned ... *
                             **************************************************************
                             _ZNSt8__detail30__integer_to_chars_is_unsigned
                             std::__detail::__integer_to_chars_is_unsigned<>
        0010383f 01              undefined1 01h
                             //
                             // .eh_frame_hdr 
                             // SHT_PROGBITS  [0x3840 - 0x38cb]
                             // ram:00103840-ram:001038cb
                             //
                             **************************************************************
                             * Exception Handler Frame Header                             *
                             **************************************************************
                             __GNU_EH_FRAME_HDR                              XREF[2]:     00100280(*), 
                                                                                          _elfSectionHeaders::000004d0(*)  
        00103840 01 1b 03 3b     eh_frame                                                    Exception Handler Frame Header V
        00103844 8c 00 00 00     ddw        cie_001038d0                                     Encoded eh_frame_ptr
        00103848 10 00 00 00     ddw        10h                                              Encoded FDE count
                             **************************************************************
                             * Frame Description Entry Table                              *
                             **************************************************************
        0010384c e0 d7 ff        fde_tabl                                                    Initial Location
                 ff c0 00 
                 00 00
        00103854 c0 d8 ff        fde_tabl                                                    Initial Location
                 ff e8 00 
                 00 00
        0010385c d0 d8 ff        fde_tabl                                                    Initial Location
                 ff 00 01 
                 00 00
        00103864 a0 d9 ff        fde_tabl                                                    Initial Location
                 ff a8 00 
                 00 00
        0010386c 89 da ff        fde_tabl                                                    Initial Location
                 ff 18 01 
                 00 00
        00103874 ee da ff        fde_tabl                                                    Initial Location
                 ff 38 01 
                 00 00
        0010387c 52 db ff        fde_tabl                                                    Initial Location
                 ff 58 01 
                 00 00
        00103884 cf db ff        fde_tabl                                                    Initial Location
                 ff 78 01 
                 00 00
        0010388c 29 dc ff        fde_tabl                                                    Initial Location
                 ff 98 01 
                 00 00
        00103894 6a dc ff        fde_tabl                                                    Initial Location
                 ff b8 01 
                 00 00
        0010389c c4 dc ff        fde_tabl                                                    Initial Location
                 ff d8 01 
                 00 00
        001038a4 1e dd ff        fde_tabl                                                    Initial Location
                 ff f8 01 
                 00 00
        001038ac d9 dd ff        fde_tabl                                                    Initial Location
                 ff 18 02 
                 00 00
        001038b4 7f e0 ff        fde_tabl                                                    Initial Location
                 ff 3c 02 
                 00 00
        001038bc ac e1 ff        fde_tabl                                                    Initial Location
                 ff 5c 02 
                 00 00
        001038c4 ec e1 ff        fde_tabl                                                    Initial Location
                 ff 7c 02 
                 00 00
                             //
                             // .eh_frame 
                             // SHT_PROGBITS  [0x38d0 - 0x3adf]
                             // ram:001038d0-ram:00103adf
                             //
                             **************************************************************
                             * Common Information Entry                                   *
                             **************************************************************
                             cie_001038d0                                    XREF[18]:    00103844(*), 001038ec(*), 
                                                                                          00103904(*), 0010392c(*), 
                                                                                          00103944(*), 0010395c(*), 
                                                                                          0010397c(*), 0010399c(*), 
                                                                                          001039bc(*), 001039dc(*), 
                                                                                          001039fc(*), 00103a1c(*), 
                                                                                          00103a3c(*), 00103a5c(*), 
                                                                                          00103a80(*), 00103aa0(*), 
                                                                                          00103ac0(*), 
                                                                                          _elfSectionHeaders::00000510(*)  
        001038d0 14 00 00 00     ddw        14h                                              (CIE) Length
        001038d4 00 00 00 00     ddw        0h                                               (CIE) ID
        001038d8 01              db         1h                                               (CIE) Version
        001038d9 7a 52 00        ds         "zR"                                             (CIE) Augmentation String
        001038dc 01              uleb128    1h                                               (CIE) Code Alignment
        001038dd 78              sleb128    -8h                                              (CIE) Data Alignment
        001038de 10              db         10h                                              (CIE) Return Address Register Co
        001038df 01              uleb128    1h                                               (CIE) Augmentation Data Length
        001038e0 1b              dwfenc     DW_EH_PE_sdata4 | DW_EH_PE_pcrel                 (CIE Augmentation Data) FDE Enco
        001038e1 0c 07 08        db[7]                                                       (CIE) Initial Instructions
                 90 01 00 00
                             **************************************************************
                             * Frame Descriptor Entry                                     *
                             **************************************************************
                             fde_001038e8                                    XREF[1]:     00103868(*)  
        001038e8 14 00 00 00     ddw        14h                                              (FDE) Length
        001038ec 1c 00 00 00     ddw        cie_001038d0                                     (FDE) CIE Reference Pointer 
        001038f0 f0 d8 ff ff     ddw        _start                                           (FDE) PcBegin
        001038f4 26 00 00 00     ddw        26h                                              (FDE) PcRange
        001038f8 00              uleb128    0h                                               (FDE) Augmentation Data Length
        001038f9 44 07 10        db[7]                                                       (FDE) Call Frame Instructions
                 00 00 00 00
                             **************************************************************
                             * Frame Descriptor Entry                                     *
                             **************************************************************
                             fde_00103900                                    XREF[1]:     00103850(*)  
        00103900 24 00 00 00     ddw        24h                                              (FDE) Length
        00103904 34 00 00 00     ddw        cie_001038d0                                     (FDE) CIE Reference Pointer 
        00103908 18 d7 ff ff     ddw        FUN_00101020                                     (FDE) PcBegin
        0010390c e0 00 00 00     ddw        E0h                                              (FDE) PcRange
        00103910 00              uleb128    0h                                               (FDE) Augmentation Data Length
        00103911 0e 10 46        db[23]                                                      (FDE) Call Frame Instructions
                 0e 18 4a 
                 0f 0b 77 
                             **************************************************************
                             * Frame Descriptor Entry                                     *
                             **************************************************************
                             fde_00103928                                    XREF[1]:     00103858(*)  
        00103928 14 00 00 00     ddw        14h                                              (FDE) Length
        0010392c 5c 00 00 00     ddw        cie_001038d0                                     (FDE) CIE Reference Pointer 
        00103930 d0 d7 ff ff     ddw        <EXTERNAL>::__cxa_finalize                       (FDE) PcBegin
        00103934 10 00 00        dq         10h                                              (FDE) PcRange
                 00 00 00 
                 00 00
        0010393c 00              uleb128    0h                                               (FDE) Augmentation Data Length
        0010393d 00 00 00        db[3]                                                       (FDE) Call Frame Instructions
                             **************************************************************
                             * Frame Descriptor Entry                                     *
                             **************************************************************
                             fde_00103940                                    XREF[1]:     00103860(*)  
        00103940 14 00 00 00     ddw        14h                                              (FDE) Length
        00103944 74 00 00 00     ddw        cie_001038d0                                     (FDE) CIE Reference Pointer 
        00103948 c8 d7 ff ff     ddw        <EXTERNAL>::setvbuf                              (FDE) PcBegin
        0010394c d0 00 00        dq         D0h                                              (FDE) PcRange
                 00 00 00 
                 00 00
        00103954 00              uleb128    0h                                               (FDE) Augmentation Data Length
        00103955 00 00 00        db[3]                                                       (FDE) Call Frame Instructions
                             **************************************************************
                             * Frame Descriptor Entry                                     *
                             **************************************************************
                             fde_00103958                                    XREF[1]:     00103870(*)  
        00103958 1c 00 00 00     ddw        1Ch                                              (FDE) Length
        0010395c 8c 00 00 00     ddw        cie_001038d0                                     (FDE) CIE Reference Pointer 
        00103960 69 d9 ff ff     ddw        error                                            (FDE) PcBegin
        00103964 65 00 00 00     ddw        65h                                              (FDE) PcRange
        00103968 00              uleb128    0h                                               (FDE) Augmentation Data Length
        00103969 45 0e 10        db[15]                                                      (FDE) Call Frame Instructions
                 86 02 43 
                 0d 06 02 
                             **************************************************************
                             * Frame Descriptor Entry                                     *
                             **************************************************************
                             fde_00103978                                    XREF[1]:     00103878(*)  
        00103978 1c 00 00 00     ddw        1Ch                                              (FDE) Length
        0010397c ac 00 00 00     ddw        cie_001038d0                                     (FDE) CIE Reference Pointer 
        00103980 ae d9 ff ff     ddw        cls                                              (FDE) PcBegin
        00103984 64 00 00 00     ddw        64h                                              (FDE) PcRange
        00103988 00              uleb128    0h                                               (FDE) Augmentation Data Length
        00103989 45 0e 10        db[15]                                                      (FDE) Call Frame Instructions
                 86 02 43 
                 0d 06 02 
                             **************************************************************
                             * Frame Descriptor Entry                                     *
                             **************************************************************
                             fde_00103998                                    XREF[1]:     00103880(*)  
        00103998 1c 00 00 00     ddw        1Ch                                              (FDE) Length
        0010399c cc 00 00 00     ddw        cie_001038d0                                     (FDE) CIE Reference Pointer 
        001039a0 f2 d9 ff ff     ddw        read_num                                         (FDE) PcBegin
        001039a4 7d 00 00 00     ddw        7Dh                                              (FDE) PcRange
        001039a8 00              uleb128    0h                                               (FDE) Augmentation Data Length
        001039a9 45 0e 10        db[15]                                                      (FDE) Call Frame Instructions
                 86 02 43 
                 0d 06 02 
                             **************************************************************
                             * Frame Descriptor Entry                                     *
                             **************************************************************
                             fde_001039b8                                    XREF[1]:     00103888(*)  
        001039b8 1c 00 00 00     ddw        1Ch                                              (FDE) Length
        001039bc ec 00 00 00     ddw        cie_001038d0                                     (FDE) CIE Reference Pointer 
        001039c0 4f da ff ff     ddw        banana                                           (FDE) PcBegin
        001039c4 5a 00 00 00     ddw        5Ah                                              (FDE) PcRange
        001039c8 00              uleb128    0h                                               (FDE) Augmentation Data Length
        001039c9 45 0e 10        db[15]                                                      (FDE) Call Frame Instructions
                 86 02 43 
                 0d 06 02 
                             **************************************************************
                             * Frame Descriptor Entry                                     *
                             **************************************************************
                             fde_001039d8                                    XREF[1]:     00103890(*)  
        001039d8 1c 00 00 00     ddw        1Ch                                              (FDE) Length
        001039dc 0c 01 00 00     ddw        cie_001038d0                                     (FDE) CIE Reference Pointer 
        001039e0 89 da ff ff     ddw        banner                                           (FDE) PcBegin
        001039e4 41 00 00 00     ddw        41h                                              (FDE) PcRange
        001039e8 00              uleb128    0h                                               (FDE) Augmentation Data Length
        001039e9 45 0e 10        db[15]                                                      (FDE) Call Frame Instructions
                 86 02 43 
                 0d 06 78 
                             **************************************************************
                             * Frame Descriptor Entry                                     *
                             **************************************************************
                             fde_001039f8                                    XREF[1]:     00103898(*)  
        001039f8 1c 00 00 00     ddw        1Ch                                              (FDE) Length
        001039fc 2c 01 00 00     ddw        cie_001038d0                                     (FDE) CIE Reference Pointer 
        00103a00 aa da ff ff     ddw        rocket                                           (FDE) PcBegin
        00103a04 5a 00 00 00     ddw        5Ah                                              (FDE) PcRange
        00103a08 00              uleb128    0h                                               (FDE) Augmentation Data Length
        00103a09 45 0e 10        db[15]                                                      (FDE) Call Frame Instructions
                 86 02 43 
                 0d 06 02 
                             **************************************************************
                             * Frame Descriptor Entry                                     *
                             **************************************************************
                             fde_00103a18                                    XREF[1]:     001038a0(*)  
        00103a18 1c 00 00 00     ddw        1Ch                                              (FDE) Length
        00103a1c 4c 01 00 00     ddw        cie_001038d0                                     (FDE) CIE Reference Pointer 
        00103a20 e4 da ff ff     ddw        mushroom                                         (FDE) PcBegin
        00103a24 5a 00 00 00     ddw        5Ah                                              (FDE) PcRange
        00103a28 00              uleb128    0h                                               (FDE) Augmentation Data Length
        00103a29 45 0e 10        db[15]                                                      (FDE) Call Frame Instructions
                 86 02 43 
                 0d 06 02 
                             **************************************************************
                             * Frame Descriptor Entry                                     *
                             **************************************************************
                             fde_00103a38                                    XREF[1]:     001038a8(*)  
        00103a38 1c 00 00 00     ddw        1Ch                                              (FDE) Length
        00103a3c 6c 01 00 00     ddw        cie_001038d0                                     (FDE) CIE Reference Pointer 
        00103a40 1e db ff ff     ddw        custom                                           (FDE) PcBegin
        00103a44 bb 00 00 00     ddw        BBh                                              (FDE) PcRange
        00103a48 00              uleb128    0h                                               (FDE) Augmentation Data Length
        00103a49 45 0e 10        db[15]                                                      (FDE) Call Frame Instructions
                 86 02 43 
                 0d 06 02 
                             **************************************************************
                             * Frame Descriptor Entry                                     *
                             **************************************************************
                             fde_00103a58                                    XREF[1]:     001038b0(*)  
        00103a58 20 00 00 00     ddw        20h                                              (FDE) Length
        00103a5c 8c 01 00 00     ddw        cie_001038d0                                     (FDE) CIE Reference Pointer 
        00103a60 b9 db ff ff     ddw        race                                             (FDE) PcBegin
        00103a64 a6 02 00 00     ddw        2A6h                                             (FDE) PcRange
        00103a68 00              uleb128    0h                                               (FDE) Augmentation Data Length
        00103a69 45 0e 10        db[19]                                                      (FDE) Call Frame Instructions
                 86 02 43 
                 0d 06 45 
                             **************************************************************
                             * Frame Descriptor Entry                                     *
                             **************************************************************
                             fde_00103a7c                                    XREF[1]:     001038b8(*)  
        00103a7c 1c 00 00 00     ddw        1Ch                                              (FDE) Length
        00103a80 b0 01 00 00     ddw        cie_001038d0                                     (FDE) CIE Reference Pointer 
        00103a84 3b de ff ff     ddw        power_up                                         (FDE) PcBegin
        00103a88 2d 01 00 00     ddw        12Dh                                             (FDE) PcRange
        00103a8c 00              uleb128    0h                                               (FDE) Augmentation Data Length
        00103a8d 45 0e 10        db[15]                                                      (FDE) Call Frame Instructions
                 86 02 43 
                 0d 06 03 
                             **************************************************************
                             * Frame Descriptor Entry                                     *
                             **************************************************************
                             fde_00103a9c                                    XREF[1]:     001038c0(*)  
        00103a9c 1c 00 00 00     ddw        1Ch                                              (FDE) Length
        00103aa0 d0 01 00 00     ddw        cie_001038d0                                     (FDE) CIE Reference Pointer 
        00103aa4 48 df ff ff     ddw        main                                             (FDE) PcBegin
        00103aa8 40 00 00 00     ddw        40h                                              (FDE) PcRange
        00103aac 00              uleb128    0h                                               (FDE) Augmentation Data Length
        00103aad 45 0e 10        db[15]                                                      (FDE) Call Frame Instructions
                 86 02 43 
                 0d 06 77 
                             **************************************************************
                             * Frame Descriptor Entry                                     *
                             **************************************************************
                             fde_00103abc                                    XREF[1]:     001038c8(*)  
        00103abc 1c 00 00 00     ddw        1Ch                                              (FDE) Length
        00103ac0 f0 01 00 00     ddw        cie_001038d0                                     (FDE) CIE Reference Pointer 
        00103ac4 68 df ff ff     ddw        setup                                            (FDE) PcBegin
        00103ac8 7d 00 00 00     ddw        7Dh                                              (FDE) PcRange
        00103acc 00              uleb128    0h                                               (FDE) Augmentation Data Length
        00103acd 45 0e 10        db[15]                                                      (FDE) Call Frame Instructions
                 86 02 43 
                 0d 06 02 
                             **************************************************************
                             * END OF FRAME                                               *
                             **************************************************************
                             __FRAME_END__
        00103adc 00 00 00 00     ddw        0h                                               End of Frame
                             //
                             // .init_array 
                             // SHT_INIT_ARRAY  [0x4d30 - 0x4d3f]
                             // ram:00104d30-ram:00104d3f
                             //
                             __DT_INIT_ARRAY                                 XREF[4]:     00100168(*), 001002f0(*), 
                             __frame_dummy_init_array_entry                               00104da0(*), 
                                                                                          _elfSectionHeaders::00000550(*)  
        00104d30 c0 12 10        addr       frame_dummy
                 00 00 00 
                 00 00
        00104d38 2c 1a 10        addr       setup
                 00 00 00 
                 00 00
                             //
                             // .fini_array 
                             // SHT_FINI_ARRAY  [0x4d40 - 0x4d47]
                             // ram:00104d40-ram:00104d47
                             //
                             __DT_FINI_ARRAY                                 XREF[2]:     00104dc0(*), 
                             __do_global_dtors_aux_fini_array_entry                       _elfSectionHeaders::00000590(*)  
        00104d40 80 12 10        addr       __do_global_dtors_aux
                 00 00 00 
                 00 00
                             //
                             // .dynamic 
                             // SHT_DYNAMIC  [0x4d48 - 0x4f57]
                             // ram:00104d48-ram:00104f57
                             //
                             _DYNAMIC                                        XREF[3]:     001001a0(*), 00104f58(*), 
                                                                                          _elfSectionHeaders::000005d0(*)  
        00104d48 01 00 00        Elf64_Dy                                                    DT_NEEDED - Name of needed library
                 00 00 00 
                 00 00 2c 
        00104f18 00              ??         00h
        00104f19 00              ??         00h
        00104f1a 00              ??         00h
        00104f1b 00              ??         00h
        00104f1c 00              ??         00h
        00104f1d 00              ??         00h
        00104f1e 00              ??         00h
        00104f1f 00              ??         00h
        00104f20 00              ??         00h
        00104f21 00              ??         00h
        00104f22 00              ??         00h
        00104f23 00              ??         00h
        00104f24 00              ??         00h
        00104f25 00              ??         00h
        00104f26 00              ??         00h
        00104f27 00              ??         00h
        00104f28 00              ??         00h
        00104f29 00              ??         00h
        00104f2a 00              ??         00h
        00104f2b 00              ??         00h
        00104f2c 00              ??         00h
        00104f2d 00              ??         00h
        00104f2e 00              ??         00h
        00104f2f 00              ??         00h
        00104f30 00              ??         00h
        00104f31 00              ??         00h
        00104f32 00              ??         00h
        00104f33 00              ??         00h
        00104f34 00              ??         00h
        00104f35 00              ??         00h
        00104f36 00              ??         00h
        00104f37 00              ??         00h
        00104f38 00              ??         00h
        00104f39 00              ??         00h
        00104f3a 00              ??         00h
        00104f3b 00              ??         00h
        00104f3c 00              ??         00h
        00104f3d 00              ??         00h
        00104f3e 00              ??         00h
        00104f3f 00              ??         00h
        00104f40 00              ??         00h
        00104f41 00              ??         00h
        00104f42 00              ??         00h
        00104f43 00              ??         00h
        00104f44 00              ??         00h
        00104f45 00              ??         00h
        00104f46 00              ??         00h
        00104f47 00              ??         00h
        00104f48 00              ??         00h
        00104f49 00              ??         00h
        00104f4a 00              ??         00h
        00104f4b 00              ??         00h
        00104f4c 00              ??         00h
        00104f4d 00              ??         00h
        00104f4e 00              ??         00h
        00104f4f 00              ??         00h
        00104f50 00              ??         00h
        00104f51 00              ??         00h
        00104f52 00              ??         00h
        00104f53 00              ??         00h
        00104f54 00              ??         00h
        00104f55 00              ??         00h
        00104f56 00              ??         00h
        00104f57 00              ??         00h
                             //
                             // .got 
                             // SHT_PROGBITS  [0x4f58 - 0x4fff]
                             // ram:00104f58-ram:00104fff
                             //
                             __DT_PLTGOT                                     XREF[2]:     00104e40(*), 
                             _GLOBAL_OFFSET_TABLE_                                        _elfSectionHeaders::00000610(*)  
        00104f58 48 4d 10        addr       _DYNAMIC
                 00 00 00 
                 00 00
                             PTR_00104f60                                    XREF[1]:     FUN_00101020:00101020(R)  
        00104f60 00 00 00        addr       00000000
                 00 00 00 
                 00 00
                             PTR_00104f68                                    XREF[1]:     FUN_00101020:00101026  
        00104f68 00 00 00        addr       00000000
                 00 00 00 
                 00 00
                             PTR_setvbuf_00104f70                            XREF[1]:     setvbuf:00101114  
        00104f70 00 60 10        addr       <EXTERNAL>::setvbuf                              = ??
                 00 00 00 
                 00 00
                             PTR_printf_00104f78                             XREF[1]:     printf:00101124  
        00104f78 08 60 10        addr       <EXTERNAL>::printf                               = ??
                 00 00 00 
                 00 00
                             PTR_rand_00104f80                               XREF[1]:     rand:00101134  
        00104f80 10 60 10        addr       <EXTERNAL>::rand                                 = ??
                 00 00 00 
                 00 00
                             PTR_time_00104f88                               XREF[1]:     time:00101144  
        00104f88 20 60 10        addr       <EXTERNAL>::time                                 = ??
                 00 00 00 
                 00 00
                             PTR_srand_00104f90                              XREF[1]:     srand:00101154  
        00104f90 28 60 10        addr       <EXTERNAL>::srand                                = ??
                 00 00 00 
                 00 00
                             PTR_operator<<_00104f98                         XREF[1]:     operator<<:00101164  
        00104f98 30 60 10        addr       <EXTERNAL>::std::operator<<                      = ??
                 00 00 00 
                 00 00
                             PTR___stack_chk_fail_00104fa0                   XREF[1]:     __stack_chk_fail:00101174  
        00104fa0 38 60 10        addr       <EXTERNAL>::__stack_chk_fail                     = ??
                 00 00 00 
                 00 00
                             PTR_exit_00104fa8                               XREF[1]:     exit:00101184  
        00104fa8 40 60 10        addr       <EXTERNAL>::exit                                 = ??
                 00 00 00 
                 00 00
                             PTR___isoc23_strtoul_00104fb0                   XREF[1]:     __isoc23_strtoul:00101194  
        00104fb0 48 60 10        addr       <EXTERNAL>::__isoc23_strtoul                     = ??
                 00 00 00 
                 00 00
                             PTR_putchar_00104fb8                            XREF[1]:     putchar:001011a4  
        00104fb8 50 60 10        addr       <EXTERNAL>::putchar                              = ??
                 00 00 00 
                 00 00
                             PTR_read_00104fc0                               XREF[1]:     read:001011b4  
        00104fc0 58 60 10        addr       <EXTERNAL>::read                                 = ??
                 00 00 00 
                 00 00
                             PTR_puts_00104fc8                               XREF[1]:     puts:001011c4  
        00104fc8 60 60 10        addr       <EXTERNAL>::puts                                 = ??
                 00 00 00 
                 00 00
                             PTR_alarm_00104fd0                              XREF[1]:     alarm:001011d4  
        00104fd0 80 60 10        addr       <EXTERNAL>::alarm                                = ??
                 00 00 00 
                 00 00
                             PTR___cxa_finalize_00104fd8                     XREF[2]:     __cxa_finalize:00101104, 
                                                                                          __do_global_dtors_aux:0010128e(R
        00104fd8 90 60 10        addr       <EXTERNAL>::__cxa_finalize                       = ??
                 00 00 00 
                 00 00
                             PTR___libc_start_main_00104fe0                  XREF[1]:     _start:001011ff(R)  
        00104fe0 18 60 10        addr       <EXTERNAL>::__libc_start_main                    = ??
                 00 00 00 
                 00 00
                             PTR__ITM_deregisterTMCloneTable_00104fe8        XREF[1]:     deregister_tm_clones:00101223(R)  
        00104fe8 70 60 10        addr       <EXTERNAL>::_ITM_deregisterTMCloneTable          = ??
                 00 00 00 
                 00 00
                             PTR___gmon_start___00104ff0                     XREF[1]:     _init:00101008(R)  
        00104ff0 78 60 10        addr       <EXTERNAL>::__gmon_start__                       = ??
                 00 00 00 
                 00 00
                             PTR__ITM_registerTMCloneTable_00104ff8          XREF[1]:     register_tm_clones:00101264(R)  
        00104ff8 88 60 10        addr       <EXTERNAL>::_ITM_registerTMCloneTable            = ??
                 00 00 00 
                 00 00
                             //
                             // .data 
                             // SHT_PROGBITS  [0x5000 - 0x500f]
                             // ram:00105000-ram:0010500f
                             //
                             __data_start                                    XREF[2]:     Entry Point(*), 
                             data_start                                                   _elfSectionHeaders::00000650(*)  
        00105000 00              ??         00h
        00105001 00              ??         00h
        00105002 00              ??         00h
        00105003 00              ??         00h
        00105004 00              ??         00h
        00105005 00              ??         00h
        00105006 00              ??         00h
        00105007 00              ??         00h
                             __dso_handle                                    XREF[3]:     Entry Point(*), 
                                                                                          __do_global_dtors_aux:0010129b(R
                                                                                          00105008(*)  
        00105008 08 50 10        addr       __dso_handle                                     = 00105008
                 00 00 00 
                 00 00
                             //
                             // .bss 
                             // SHT_NOBITS  [0x5040 - 0x5197]
                             // ram:00105040-ram:00105197
                             //
                             stdout@GLIBC_2.2.5                              XREF[3]:     Entry Point(*), 
                             __bss_start                                                  setup:00101a6a(R), 
                             stdout                                                       _elfSectionHeaders::00000690(*)  
        00105040 00 00 00        undefined8 0000000000000000h
                 00 00 00 
                 00 00
        00105048 00              ??         00h
        00105049 00              ??         00h
        0010504a 00              ??         00h
        0010504b 00              ??         00h
        0010504c 00              ??         00h
        0010504d 00              ??         00h
        0010504e 00              ??         00h
        0010504f 00              ??         00h
                             stdin@GLIBC_2.2.5                               XREF[2]:     Entry Point(*), 
                             stdin                                                        setup:00101a4c(R)  
        00105050 00 00 00        undefined8 0000000000000000h
                 00 00 00 
                 00 00
        00105058 00              ??         00h
        00105059 00              ??         00h
        0010505a 00              ??         00h
        0010505b 00              ??         00h
        0010505c 00              ??         00h
        0010505d 00              ??         00h
        0010505e 00              ??         00h
        0010505f 00              ??         00h
        00105060 00              ??         00h
        00105061 00              ??         00h
        00105062 00              ??         00h
        00105063 00              ??         00h
        00105064 00              ??         00h
        00105065 00              ??         00h
        00105066 00              ??         00h
        00105067 00              ??         00h
        00105068 00              ??         00h
        00105069 00              ??         00h
        0010506a 00              ??         00h
        0010506b 00              ??         00h
        0010506c 00              ??         00h
        0010506d 00              ??         00h
        0010506e 00              ??         00h
        0010506f 00              ??         00h
        00105070 00              ??         00h
        00105071 00              ??         00h
        00105072 00              ??         00h
        00105073 00              ??         00h
        00105074 00              ??         00h
        00105075 00              ??         00h
        00105076 00              ??         00h
        00105077 00              ??         00h
        00105078 00              ??         00h
        00105079 00              ??         00h
        0010507a 00              ??         00h
        0010507b 00              ??         00h
        0010507c 00              ??         00h
        0010507d 00              ??         00h
        0010507e 00              ??         00h
        0010507f 00              ??         00h
                             **************************************************************
                             * std::cout                                                  *
                             **************************************************************
                             _ZSt4cout@GLIBCXX_3.4                           XREF[15]:    Entry Point(*), race:0010187c(*), 
                             _ZSt4cout                                                    race:00101883(*), 
                             std::cout                                                    power_up:001018e4(*), 
                                                                                          power_up:001018eb(*), 
                                                                                          power_up:001018fd(*), 
                                                                                          power_up:00101904(*), 
                                                                                          power_up:00101916(*), 
                                                                                          power_up:0010191d(*), 
                                                                                          power_up:0010192f(*), 
                                                                                          power_up:00101936(*), 
                                                                                          power_up:00101948(*), 
                                                                                          power_up:0010194f(*), 
                                                                                          power_up:00101961(*), 
                                                                                          power_up:00101968(*)  
        00105080 00 00 00        undefine
                 00 00 00 
                 00 00 00 
                             completed.0                                     XREF[2]:     __do_global_dtors_aux:00101284(R
                                                                                          __do_global_dtors_aux:001012ac(W
        00105190 00              undefined1 00h
        00105191 00              ??         00h
        00105192 00              ??         00h
        00105193 00              ??         00h
        00105194 00              ??         00h
        00105195 00              ??         00h
        00105196 00              ??         00h
        00105197 00              ??         00h
                             //
                             // EXTERNAL 
                             // NOTE: This block is artificial and allows ELF Relocations 
                             // ram:00106000-ram:00106097
                             //
                             **************************************************************
                             *                       THUNK FUNCTION                       *
                             **************************************************************
                             thunk int setvbuf(FILE * __stream, char * __buf, int __m
                               Thunked-Function: <EXTERNAL>::setvbuf
             int               EAX:4          <RETURN>
             FILE *            RDI:8          __stream
             char *            RSI:8          __buf
             int               EDX:4          __modes
             size_t            RCX:8          __n
                             setvbuf@GLIBC_2.2.5
                             <EXTERNAL>::setvbuf                             XREF[2]:     setvbuf:00101110(T), 
                                                                                          setvbuf:00101114(c), 00104f70(*)  
        00106000                 ??         ??
        00106001                 ??         ??
        00106002                 ??         ??
        00106003                 ??         ??
        00106004                 ??         ??
        00106005                 ??         ??
        00106006                 ??         ??
        00106007                 ??         ??
                             **************************************************************
                             *                       THUNK FUNCTION                       *
                             **************************************************************
                             thunk int printf(char * __format, ...)
                               Thunked-Function: <EXTERNAL>::printf
             int               EAX:4          <RETURN>
             char *            RDI:8          __format
                             printf@GLIBC_2.2.5
                             <EXTERNAL>::printf                              XREF[2]:     printf:00101120(T), 
                                                                                          printf:00101124(c), 00104f78(*)  
        00106008                 ??         ??
        00106009                 ??         ??
        0010600a                 ??         ??
        0010600b                 ??         ??
        0010600c                 ??         ??
        0010600d                 ??         ??
        0010600e                 ??         ??
        0010600f                 ??         ??
                             **************************************************************
                             *                       THUNK FUNCTION                       *
                             **************************************************************
                             thunk int rand(void)
                               Thunked-Function: <EXTERNAL>::rand
             int               EAX:4          <RETURN>
                             rand@GLIBC_2.2.5
                             <EXTERNAL>::rand                                XREF[2]:     rand:00101130(T), 
                                                                                          rand:00101134(c), 00104f80(*)  
        00106010                 ??         ??
        00106011                 ??         ??
        00106012                 ??         ??
        00106013                 ??         ??
        00106014                 ??         ??
        00106015                 ??         ??
        00106016                 ??         ??
        00106017                 ??         ??
                             **************************************************************
                             *                       THUNK FUNCTION                       *
                             **************************************************************
                             thunk undefined __libc_start_main()
                               Thunked-Function: <EXTERNAL>::__libc_star
             undefined         <UNASSIGNED>   <RETURN>
                             __libc_start_main@GLIBC_2.34
                             <EXTERNAL>::__libc_start_main                   XREF[2]:     _start:001011ff(c), 00104fe0(*)  
        00106018                 ??         ??
        00106019                 ??         ??
        0010601a                 ??         ??
        0010601b                 ??         ??
        0010601c                 ??         ??
        0010601d                 ??         ??
        0010601e                 ??         ??
        0010601f                 ??         ??
                             **************************************************************
                             *                       THUNK FUNCTION                       *
                             **************************************************************
                             thunk time_t time(time_t * __timer)
                               Thunked-Function: <EXTERNAL>::time
             time_t            RAX:8          <RETURN>
             time_t *          RDI:8          __timer
                             time@GLIBC_2.2.5
                             <EXTERNAL>::time                                XREF[2]:     time:00101140(T), 
                                                                                          time:00101144(c), 00104f88(*)  
        00106020                 ??         ??
        00106021                 ??         ??
        00106022                 ??         ??
        00106023                 ??         ??
        00106024                 ??         ??
        00106025                 ??         ??
        00106026                 ??         ??
        00106027                 ??         ??
                             **************************************************************
                             *                       THUNK FUNCTION                       *
                             **************************************************************
                             thunk void srand(uint __seed)
                               Thunked-Function: <EXTERNAL>::srand
             void              <VOID>         <RETURN>
             uint              EDI:4          __seed
                             srand@GLIBC_2.2.5
                             <EXTERNAL>::srand                               XREF[2]:     srand:00101150(T), 
                                                                                          srand:00101154(c), 00104f90(*)  
        00106028                 ??         ??
        00106029                 ??         ??
        0010602a                 ??         ??
        0010602b                 ??         ??
        0010602c                 ??         ??
        0010602d                 ??         ??
        0010602e                 ??         ??
        0010602f                 ??         ??
                             **************************************************************
                             *                       THUNK FUNCTION                       *
                             **************************************************************
                             thunk ostream * operator<<(ostream * param_1, char * par
                               Thunked-Function: <EXTERNAL>::std::operat
             ostream *         RAX:8          <RETURN>
             ostream *         RDI:8          param_1
             char *            RSI:8          param_2
                             _ZStlsISt11char_traitsIcEERSt13basic_ostreamIcT_ES5_PKc@GLIBC
                             <EXTERNAL>::std::operator<<                     XREF[2]:     operator<<:00101160(T), 
                                                                                          operator<<:00101164(c), 
                                                                                          00104f98(*)  
        00106030                 ??         ??
        00106031                 ??         ??
        00106032                 ??         ??
        00106033                 ??         ??
        00106034                 ??         ??
        00106035                 ??         ??
        00106036                 ??         ??
        00106037                 ??         ??
                             **************************************************************
                             *                       THUNK FUNCTION                       *
                             **************************************************************
                             thunk noreturn undefined __stack_chk_fail()
                               Thunked-Function: <EXTERNAL>::__stack_chk
             undefined         <UNASSIGNED>   <RETURN>
                             __stack_chk_fail@GLIBC_2.4
                             <EXTERNAL>::__stack_chk_fail                    XREF[2]:     __stack_chk_fail:00101170(T), 
                                                                                          __stack_chk_fail:00101174(c), 
                                                                                          00104fa0(*)  
        00106038                 ??         ??
        00106039                 ??         ??
        0010603a                 ??         ??
        0010603b                 ??         ??
        0010603c                 ??         ??
        0010603d                 ??         ??
        0010603e                 ??         ??
        0010603f                 ??         ??
                             **************************************************************
                             *                       THUNK FUNCTION                       *
                             **************************************************************
                             thunk noreturn void exit(int __status)
                               Thunked-Function: <EXTERNAL>::exit
             void              <VOID>         <RETURN>
             int               EDI:4          __status
                             exit@GLIBC_2.2.5
                             <EXTERNAL>::exit                                XREF[2]:     exit:00101180(T), 
                                                                                          exit:00101184(c), 00104fa8(*)  
        00106040                 ??         ??
        00106041                 ??         ??
        00106042                 ??         ??
        00106043                 ??         ??
        00106044                 ??         ??
        00106045                 ??         ??
        00106046                 ??         ??
        00106047                 ??         ??
                             **************************************************************
                             *                       THUNK FUNCTION                       *
                             **************************************************************
                             thunk undefined __isoc23_strtoul()
                               Thunked-Function: <EXTERNAL>::__isoc23_st
             undefined         <UNASSIGNED>   <RETURN>
                             __isoc23_strtoul@GLIBC_2.38
                             <EXTERNAL>::__isoc23_strtoul                    XREF[2]:     __isoc23_strtoul:00101190(T), 
                                                                                          __isoc23_strtoul:00101194(c), 
                                                                                          00104fb0(*)  
        00106048                 ??         ??
        00106049                 ??         ??
        0010604a                 ??         ??
        0010604b                 ??         ??
        0010604c                 ??         ??
        0010604d                 ??         ??
        0010604e                 ??         ??
        0010604f                 ??         ??
                             **************************************************************
                             *                       THUNK FUNCTION                       *
                             **************************************************************
                             thunk int putchar(int __c)
                               Thunked-Function: <EXTERNAL>::putchar
             int               EAX:4          <RETURN>
             int               EDI:4          __c
                             putchar@GLIBC_2.2.5
                             <EXTERNAL>::putchar                             XREF[2]:     putchar:001011a0(T), 
                                                                                          putchar:001011a4(c), 00104fb8(*)  
        00106050                 ??         ??
        00106051                 ??         ??
        00106052                 ??         ??
        00106053                 ??         ??
        00106054                 ??         ??
        00106055                 ??         ??
        00106056                 ??         ??
        00106057                 ??         ??
                             **************************************************************
                             *                       THUNK FUNCTION                       *
                             **************************************************************
                             thunk ssize_t read(int __fd, void * __buf, size_t __nbyt
                               Thunked-Function: <EXTERNAL>::read
             ssize_t           RAX:8          <RETURN>
             int               EDI:4          __fd
             void *            RSI:8          __buf
             size_t            RDX:8          __nbytes
                             read@GLIBC_2.2.5
                             <EXTERNAL>::read                                XREF[2]:     read:001011b0(T), 
                                                                                          read:001011b4(c), 00104fc0(*)  
        00106058                 ??         ??
        00106059                 ??         ??
        0010605a                 ??         ??
        0010605b                 ??         ??
        0010605c                 ??         ??
        0010605d                 ??         ??
        0010605e                 ??         ??
        0010605f                 ??         ??
                             **************************************************************
                             *                       THUNK FUNCTION                       *
                             **************************************************************
                             thunk int puts(char * __s)
                               Thunked-Function: <EXTERNAL>::puts
             int               EAX:4          <RETURN>
             char *            RDI:8          __s
                             puts@GLIBC_2.2.5
                             <EXTERNAL>::puts                                XREF[2]:     puts:001011c0(T), 
                                                                                          puts:001011c4(c), 00104fc8(*)  
        00106060                 ??         ??
        00106061                 ??         ??
        00106062                 ??         ??
        00106063                 ??         ??
        00106064                 ??         ??
        00106065                 ??         ??
        00106066                 ??         ??
        00106067                 ??         ??
                             **************************************************************
                             *                       THUNK FUNCTION                       *
                             **************************************************************
                             thunk undefined ios_base_library_init(void)
                               Thunked-Function: <EXTERNAL>::std::ios_ba
             undefined         <UNASSIGNED>   <RETURN>
                             _ZSt21ios_base_library_initv@GLIBCXX_3.4.32
                             <EXTERNAL>::std::ios_base_library_init
        00106068                 ??         ??
        00106069                 ??         ??
        0010606a                 ??         ??
        0010606b                 ??         ??
        0010606c                 ??         ??
        0010606d                 ??         ??
        0010606e                 ??         ??
        0010606f                 ??         ??
                             **************************************************************
                             *                       THUNK FUNCTION                       *
                             **************************************************************
                             thunk undefined _ITM_deregisterTMCloneTable()
                               Thunked-Function: <EXTERNAL>::_ITM_deregi
             undefined         <UNASSIGNED>   <RETURN>
                             <EXTERNAL>::_ITM_deregisterTMCloneTable         XREF[3]:     deregister_tm_clones:00101223(*), 
                                                                                          deregister_tm_clones:0010122f(c), 
                                                                                          00104fe8(*)  
        00106070                 ??         ??
        00106071                 ??         ??
        00106072                 ??         ??
        00106073                 ??         ??
        00106074                 ??         ??
        00106075                 ??         ??
        00106076                 ??         ??
        00106077                 ??         ??
                             **************************************************************
                             *                       THUNK FUNCTION                       *
                             **************************************************************
                             thunk undefined __gmon_start__()
                               Thunked-Function: <EXTERNAL>::__gmon_star
             undefined         <UNASSIGNED>   <RETURN>
                             <EXTERNAL>::__gmon_start__                      XREF[3]:     _init:00101008(*), 
                                                                                          _init:00101014(c), 00104ff0(*)  
        00106078                 ??         ??
        00106079                 ??         ??
        0010607a                 ??         ??
        0010607b                 ??         ??
        0010607c                 ??         ??
        0010607d                 ??         ??
        0010607e                 ??         ??
        0010607f                 ??         ??
                             **************************************************************
                             *                       THUNK FUNCTION                       *
                             **************************************************************
                             thunk uint alarm(uint __seconds)
                               Thunked-Function: <EXTERNAL>::alarm
             uint              EAX:4          <RETURN>
             uint              EDI:4          __seconds
                             alarm@GLIBC_2.2.5
                             <EXTERNAL>::alarm                               XREF[2]:     alarm:001011d0(T), 
                                                                                          alarm:001011d4(c), 00104fd0(*)  
        00106080                 ??         ??
        00106081                 ??         ??
        00106082                 ??         ??
        00106083                 ??         ??
        00106084                 ??         ??
        00106085                 ??         ??
        00106086                 ??         ??
        00106087                 ??         ??
                             **************************************************************
                             *                       THUNK FUNCTION                       *
                             **************************************************************
                             thunk undefined _ITM_registerTMCloneTable()
                               Thunked-Function: <EXTERNAL>::_ITM_regist
             undefined         <UNASSIGNED>   <RETURN>
                             <EXTERNAL>::_ITM_registerTMCloneTable           XREF[3]:     register_tm_clones:00101264(*), 
                                                                                          register_tm_clones:00101270(c), 
                                                                                          00104ff8(*)  
        00106088                 ??         ??
        00106089                 ??         ??
        0010608a                 ??         ??
        0010608b                 ??         ??
        0010608c                 ??         ??
        0010608d                 ??         ??
        0010608e                 ??         ??
        0010608f                 ??         ??
                             **************************************************************
                             *                       THUNK FUNCTION                       *
                             **************************************************************
                             thunk undefined __cxa_finalize()
                               Thunked-Function: <EXTERNAL>::__cxa_final
             undefined         <UNASSIGNED>   <RETURN>
                             __cxa_finalize@GLIBC_2.2.5
                             <EXTERNAL>::__cxa_finalize                      XREF[2]:     __cxa_finalize:00101100(T), 
                                                                                          __cxa_finalize:00101104(c), 
                                                                                          00104fd8(*)  
        00106090                 ??         ??
        00106091                 ??         ??
        00106092                 ??         ??
        00106093                 ??         ??
        00106094                 ??         ??
        00106095                 ??         ??
        00106096                 ??         ??
        00106097                 ??         ??
                             //
                             // .comment 
                             // SHT_PROGBITS [not-loaded]
                             // .comment::00000000-.comment::00000025
                             //
             assume DF = <UNKNOWN>
                             ElfComment[0]                                   XREF[1]:     _elfSectionHeaders::000006d0(*)  
     t::00000000 47 43 43        utf8       u8"GCC: (Ubuntu 13.2.0-23ubuntu4) 13.2.0"
                 3a 20 28 
                 55 62 75 
                             //
                             // .shstrtab 
                             // SHT_STRTAB [not-loaded]
                             // .shstrtab::00000000-.shstrtab::00000119
                             //
                             DAT_.shstrtab__00000000                         XREF[1]:     _elfSectionHeaders::00000790(*)  
     b::00000000 00              ??         00h
     b::00000001 2e 73 79        utf8       u8".symtab"
                 6d 74 61 
                 62 00
     b::00000009 2e 73 74        utf8       u8".strtab"
                 72 74 61 
                 62 00
     b::00000011 2e 73 68        utf8       u8".shstrtab"
                 73 74 72 
                 74 61 62 00
     b::0000001b 2e 69 6e        utf8       u8".interp"
                 74 65 72 
                 70 00
     b::00000023 2e 6e 6f        utf8       u8".note.gnu.property"
                 74 65 2e 
                 67 6e 75 
     b::00000036 2e 6e 6f        utf8       u8".note.gnu.build-id"
                 74 65 2e 
                 67 6e 75 
     b::00000049 2e 6e 6f        utf8       u8".note.ABI-tag"
                 74 65 2e 
                 41 42 49 
     b::00000057 2e 67 6e        utf8       u8".gnu.hash"
                 75 2e 68 
                 61 73 68 00
     b::00000061 2e 64 79        utf8       u8".dynsym"
                 6e 73 79 
                 6d 00
     b::00000069 2e 64 79        utf8       u8".dynstr"
                 6e 73 74 
                 72 00
     b::00000071 2e 67 6e        utf8       u8".gnu.version"
                 75 2e 76 
                 65 72 73 
     b::0000007e 2e 67 6e        utf8       u8".gnu.version_r"
                 75 2e 76 
                 65 72 73 
     b::0000008d 2e 72 65        utf8       u8".rela.dyn"
                 6c 61 2e 
                 64 79 6e 00
     b::00000097 2e 72 65        utf8       u8".rela.plt"
                 6c 61 2e 
                 70 6c 74 00
     b::000000a1 2e 69 6e        utf8       u8".init"
                 69 74 00
     b::000000a7 2e 70 6c        utf8       u8".plt.got"
                 74 2e 67 
                 6f 74 00
     b::000000b0 2e 70 6c        utf8       u8".plt.sec"
                 74 2e 73 
                 65 63 00
     b::000000b9 2e 74 65        utf8       u8".text"
                 78 74 00
     b::000000bf 2e 66 69        utf8       u8".fini"
                 6e 69 00
     b::000000c5 2e 72 6f        utf8       u8".rodata"
                 64 61 74 
                 61 00
     b::000000cd 2e 65 68        utf8       u8".eh_frame_hdr"
                 5f 66 72 
                 61 6d 65 
     b::000000db 2e 65 68        utf8       u8".eh_frame"
                 5f 66 72 
                 61 6d 65 00
     b::000000e5 2e 69 6e        utf8       u8".init_array"
                 69 74 5f 
                 61 72 72 
     b::000000f1 2e 66 69        utf8       u8".fini_array"
                 6e 69 5f 
                 61 72 72 
     b::000000fd 2e 64 79        utf8       u8".dynamic"
                 6e 61 6d 
                 69 63 00
     b::00000106 2e 64 61        utf8       u8".data"
                 74 61 00
     b::0000010c 2e 62 73        utf8       u8".bss"
                 73 00
     b::00000111 2e 63 6f        utf8       u8".comment"
                 6d 6d 65 
                 6e 74 00
                             //
                             // .strtab 
                             // SHT_STRTAB [not-loaded]
                             // .strtab::00000000-.strtab::00000461
                             //
                             DAT_.strtab__00000000                           XREF[1]:     _elfSectionHeaders::00000750(*)  
     b::00000000 00              ??         00h
     b::00000001 53 63 72        utf8       u8"Scrt1.o"
                 74 31 2e 
                 6f 00
     b::00000009 5f 5f 61        utf8       u8"__abi_tag"
                 62 69 5f 
                 74 61 67 00
     b::00000013 63 72 74        utf8       u8"crtstuff.c"
                 73 74 75 
                 66 66 2e 
     b::0000001e 64 65 72        utf8       u8"deregister_tm_clones"
                 65 67 69 
                 73 74 65 
     b::00000033 5f 5f 64        utf8       u8"__do_global_dtors_aux"
                 6f 5f 67 
                 6c 6f 62 
     b::00000049 63 6f 6d        utf8       u8"completed.0"
                 70 6c 65 
                 74 65 64 
     b::00000055 5f 5f 64        utf8       u8"__do_global_dtors_aux_fini_array_entry"
                 6f 5f 67 
                 6c 6f 62 
     b::0000007c 66 72 61        utf8       u8"frame_dummy"
                 6d 65 5f 
                 64 75 6d 
     b::00000088 5f 5f 66        utf8       u8"__frame_dummy_init_array_entry"
                 72 61 6d 
                 65 5f 64 
     b::000000a7 6d 61 69        utf8       u8"main.cpp"
                 6e 2e 63 
                 70 70 00
     b::000000b0 5f 5a 4e        utf8       u8"_ZNSt8__detail30__integer_to_chars_is_unsig
                 53 74 38 
                 5f 5f 64 
     b::000000e3 5f 5a 4e        utf8       u8"_ZNSt8__detail30__integer_to_chars_is_unsig
                 53 74 38 
                 5f 5f 64 
     b::00000116 5f 5a 4e        utf8       u8"_ZNSt8__detail30__integer_to_chars_is_unsig
                 53 74 38 
                 5f 5f 64 
     b::00000149 5f 5f 46        utf8       u8"__FRAME_END__"
                 52 41 4d 
                 45 5f 45 
     b::00000157 5f 5f 47        utf8       u8"__GNU_EH_FRAME_HDR"
                 4e 55 5f 
                 45 48 5f 
     b::0000016a 5f 44 59        utf8       u8"_DYNAMIC"
                 4e 41 4d 
                 49 43 00
     b::00000173 5f 47 4c        utf8       u8"_GLOBAL_OFFSET_TABLE_"
                 4f 42 41 
                 4c 5f 4f 
     b::00000189 73 65 74        utf8       u8"setvbuf@GLIBC_2.2.5"
                 76 62 75 
                 66 40 47 
     b::0000019d 70 72 69        utf8       u8"printf@GLIBC_2.2.5"
                 6e 74 66 
                 40 47 4c 
     b::000001b0 73 74 64        utf8       u8"stdout@GLIBC_2.2.5"
                 6f 75 74 
                 40 47 4c 
     b::000001c3 5f 5a 35        utf8       u8"_Z5errorPc"
                 65 72 72 
                 6f 72 50 
     b::000001ce 5f 5a 36        utf8       u8"_Z6bananav"
                 62 61 6e 
                 61 6e 61 
     b::000001d9 5f 65 64        utf8       u8"_edata"
                 61 74 61 00
     b::000001e0 5f 49 4f        utf8       u8"_IO_stdin_used"
                 5f 73 74 
                 64 69 6e 
     b::000001ef 5f 5f 63        utf8       u8"__cxa_finalize@GLIBC_2.2.5"
                 78 61 5f 
                 66 69 6e 
     b::0000020a 5f 5a 33        utf8       u8"_Z3clsv"
                 63 6c 73 
                 76 00
     b::00000212 6d 61 69        utf8       u8"main"
                 6e 00
     b::00000217 5f 5f 64        utf8       u8"__dso_handle"
                 73 6f 5f 
                 68 61 6e 
     b::00000224 5f 5a 36        utf8       u8"_Z6bannerv"
                 62 61 6e 
                 6e 65 72 
     b::0000022f 5f 5a 35        utf8       u8"_Z5setupv"
                 73 65 74 
                 75 70 76 00
     b::00000239 5f 66 69        utf8       u8"_fini"
                 6e 69 00
     b::0000023f 5f 5f 6c        utf8       u8"__libc_start_main@GLIBC_2.34"
                 69 62 63 
                 5f 73 74 
     b::0000025c 73 74 64        utf8       u8"stdin@GLIBC_2.2.5"
                 69 6e 40 
                 47 4c 49 
     b::0000026e 74 69 6d        utf8       u8"time@GLIBC_2.2.5"
                 65 40 47 
                 4c 49 42 
     b::0000027f 73 72 61        utf8       u8"srand@GLIBC_2.2.5"
                 6e 64 40 
                 47 4c 49 
     b::00000291 5f 5a 53        utf8       u8"_ZStlsISt11char_traitsIcEERSt13basic_ostrea
                 74 6c 73 
                 49 53 74 
     b::000002d5 5f 5a 38        utf8       u8"_Z8mushroomv"
                 6d 75 73 
                 68 72 6f 
     b::000002e2 5f 5f 73        utf8       u8"__stack_chk_fail@GLIBC_2.4"
                 74 61 63 
                 6b 5f 63 
     b::000002fd 5f 69 6e        utf8       u8"_init"
                 69 74 00
     b::00000303 5f 5f 54        utf8       u8"__TMC_END__"
                 4d 43 5f 
                 45 4e 44 
     b::0000030f 65 78 69        utf8       u8"exit@GLIBC_2.2.5"
                 74 40 47 
                 4c 49 42 
     b::00000320 5f 5f 69        utf8       u8"__isoc23_strtoul@GLIBC_2.38"
                 73 6f 63 
                 32 33 5f 
     b::0000033c 5f 5a 53        utf8       u8"_ZSt4cout@GLIBCXX_3.4"
                 74 34 63 
                 6f 75 74 
     b::00000352 5f 5a 38        utf8       u8"_Z8read_numv"
                 72 65 61 
                 64 5f 6e 
     b::0000035f 5f 5a 36        utf8       u8"_Z6customv"
                 63 75 73 
                 74 6f 6d 
     b::0000036a 5f 5f 64        utf8       u8"__data_start"
                 61 74 61 
                 5f 73 74 
     b::00000377 5f 65 6e        utf8       u8"_end"
                 64 00
     b::0000037c 70 75 74        utf8       u8"putchar@GLIBC_2.2.5"
                 63 68 61 
                 72 40 47 
     b::00000390 72 65 61        utf8       u8"read@GLIBC_2.2.5"
                 64 40 47 
                 4c 49 42 
     b::000003a1 5f 5f 62        utf8       u8"__bss_start"
                 73 73 5f 
                 73 74 61 
     b::000003ad 70 75 74        utf8       u8"puts@GLIBC_2.2.5"
                 73 40 47 
                 4c 49 42 
     b::000003be 5f 5a 53        utf8       u8"_ZSt21ios_base_library_initv@GLIBCXX_3.4.32"
                 74 32 31 
                 69 6f 73 
     b::000003ea 5f 5a 34        utf8       u8"_Z4racev"
                 72 61 63 
                 65 76 00
     b::000003f3 5f 5a 36        utf8       u8"_Z6rocketv"
                 72 6f 63 
                 6b 65 74 
     b::000003fe 5f 49 54        utf8       u8"_ITM_deregisterTMCloneTable"
                 4d 5f 64 
                 65 72 65 
     b::0000041a 5f 5f 67        utf8       u8"__gmon_start__"
                 6d 6f 6e 
                 5f 73 74 
     b::00000429 61 6c 61        utf8       u8"alarm@GLIBC_2.2.5"
                 72 6d 40 
                 47 4c 49 
     b::0000043b 5f 5a 38        utf8       u8"_Z8power_upv"
                 70 6f 77 
                 65 72 5f 
     b::00000448 5f 49 54        utf8       u8"_ITM_registerTMCloneTable"
                 4d 5f 72 
                 65 67 69 
                             //
                             // .symtab 
                             // SHT_SYMTAB [not-loaded]
                             // .symtab::00000000-.symtab::0000062f
                             //
                             Elf64_Sym_ARRAY_.symtab__00000000               XREF[1]:     _elfSectionHeaders::00000710(*)  
     b::00000000 00 00 00        Elf64_Sy
                 00 00 00 
                 00 00 00 
                             //
                             // _elfSectionHeaders 
                             // Elf Section Headers
                             // _elfSectionHeaders::00000000-_elfSectionHeaders::000007bf
                             //
                             Elf64_Shdr_ARRAY__elfSectionHeaders__00000000   XREF[1]:     00100028(*)  
     s::00000000 00 00 00        Elf64_Sh                                                    SECTION0 - SHT_NULL
                 00 00 00 
                 00 00 00 
